---
triple:          'arm64-apple-darwin'
binary-path:     '/Users/rogersarinana/Documents/NeetCode/Neet_Code/HackerRank/diagonalDifference'
relocations:
  - { offsetInCU: 0x5766, offset: 0x5766, size: 0x8, addend: 0x0, symName: __ZNSt3__112__to_addressB8ue170006IiEEPT_S2_, symObjAddr: 0x8AC, symBinAddr: 0x10000421C, symSize: 0x14 }
  - { offsetInCU: 0x579B, offset: 0x579B, size: 0x8, addend: 0x0, symName: __ZNSt3__119__libcpp_deallocateB8ue170006EPvmm, symObjAddr: 0x95C, symBinAddr: 0x1000042CC, symSize: 0x30 }
  - { offsetInCU: 0x57E3, offset: 0x57E3, size: 0x8, addend: 0x0, symName: __ZNSt3__127__do_deallocate_handle_sizeB8ue170006IJEEEvPvmDpT_, symObjAddr: 0x98C, symBinAddr: 0x1000042FC, symSize: 0x28 }
  - { offsetInCU: 0x5821, offset: 0x5821, size: 0x8, addend: 0x0, symName: __ZNSt3__124__libcpp_operator_deleteB8ue170006IJPvEEEvDpT_, symObjAddr: 0x9B4, symBinAddr: 0x100004324, symSize: 0x24 }
  - { offsetInCU: 0x5856, offset: 0x5856, size: 0x8, addend: 0x0, symName: __ZNSt3__122__make_exception_guardB8ue170006INS_6vectorIiNS_9allocatorIiEEE16__destroy_vectorEEENS_28__exception_guard_exceptionsIT_EES7_, symObjAddr: 0xBCC, symBinAddr: 0x10000453C, symSize: 0x40 }
  - { offsetInCU: 0x588B, offset: 0x588B, size: 0x8, addend: 0x0, symName: __ZNSt3__119__allocate_at_leastB8ue170006INS_9allocatorIiEEEENS_19__allocation_resultINS_16allocator_traitsIT_E7pointerEEERS5_m, symObjAddr: 0xF78, symBinAddr: 0x1000048E8, symSize: 0x40 }
  - { offsetInCU: 0x58CE, offset: 0x58CE, size: 0x8, addend: 0x0, symName: __ZNSt3__13minB8ue170006ImEERKT_S3_S3_, symObjAddr: 0x108C, symBinAddr: 0x1000049FC, symSize: 0x2C }
  - { offsetInCU: 0x5B12, offset: 0x5B12, size: 0x8, addend: 0x0, symName: __ZNSt3__13minB8ue170006ImNS_6__lessIvvEEEERKT_S5_S5_T0_, symObjAddr: 0x1118, symBinAddr: 0x100004A88, symSize: 0x54 }
  - { offsetInCU: 0x5BB1, offset: 0x5BB1, size: 0x8, addend: 0x0, symName: __ZNSt3__120__throw_length_errorB8ue170006EPKc, symObjAddr: 0x11F4, symBinAddr: 0x100004B64, symSize: 0x64 }
  - { offsetInCU: 0x5BDB, offset: 0x5BDB, size: 0x8, addend: 0x0, symName: __ZNSt3__117__libcpp_allocateB8ue170006Emm, symObjAddr: 0x1364, symBinAddr: 0x100004CD4, symSize: 0x28 }
  - { offsetInCU: 0x5C18, offset: 0x5C18, size: 0x8, addend: 0x0, symName: __ZNSt3__121__libcpp_operator_newB8ue170006IJmEEEPvDpT_, symObjAddr: 0x138C, symBinAddr: 0x100004CFC, symSize: 0x24 }
  - { offsetInCU: 0x5C51, offset: 0x5C51, size: 0x8, addend: 0x0, symName: __ZNSt3__130__uninitialized_allocator_copyB8ue170006INS_9allocatorIiEEPKiS4_PiEET2_RT_T0_T1_S6_, symObjAddr: 0x1424, symBinAddr: 0x100004D94, symSize: 0x80 }
  - { offsetInCU: 0x5CEE, offset: 0x5CEE, size: 0x8, addend: 0x0, symName: __ZNSt3__114__unwrap_rangeB8ue170006IPKiS2_EENS_4pairIT0_S4_EET_S6_, symObjAddr: 0x1514, symBinAddr: 0x100004E84, symSize: 0x60 }
  - { offsetInCU: 0x5D3A, offset: 0x5D3A, size: 0x8, addend: 0x0, symName: __ZNSt3__135__uninitialized_allocator_copy_implB8ue170006INS_9allocatorIiEEKiiiLPv0EEEPT2_RT_PT0_SA_S6_, symObjAddr: 0x1574, symBinAddr: 0x100004EE4, symSize: 0x38 }
  - { offsetInCU: 0x5DBB, offset: 0x5DBB, size: 0x8, addend: 0x0, symName: __ZNSt3__113__unwrap_iterB8ue170006IPiNS_18__unwrap_iter_implIS1_Lb1EEELi0EEEDTclsrT0_8__unwrapclsr3stdE7declvalIT_EEEES5_, symObjAddr: 0x15AC, symBinAddr: 0x100004F1C, symSize: 0x24 }
  - { offsetInCU: 0x5DFF, offset: 0x5DFF, size: 0x8, addend: 0x0, symName: __ZNSt3__113__rewrap_iterB8ue170006IPiS1_NS_18__unwrap_iter_implIS1_Lb1EEEEET_S4_T0_, symObjAddr: 0x15D0, symBinAddr: 0x100004F40, symSize: 0x3C }
  - { offsetInCU: 0x5E54, offset: 0x5E54, size: 0x8, addend: 0x0, symName: __ZNSt3__19make_pairB8ue170006IPKiS2_EENS_4pairINS_18__unwrap_ref_decayIT_E4typeENS4_IT0_E4typeEEEOS5_OS8_, symObjAddr: 0x160C, symBinAddr: 0x100004F7C, symSize: 0x38 }
  - { offsetInCU: 0x5EA3, offset: 0x5EA3, size: 0x8, addend: 0x0, symName: __ZNSt3__113__unwrap_iterB8ue170006IPKiNS_18__unwrap_iter_implIS2_Lb1EEELi0EEEDTclsrT0_8__unwrapclsr3stdE7declvalIT_EEEES6_, symObjAddr: 0x1644, symBinAddr: 0x100004FB4, symSize: 0x24 }
  - { offsetInCU: 0x600E, offset: 0x600E, size: 0x8, addend: 0x0, symName: __ZNSt3__112__to_addressB8ue170006IKiEEPT_S3_, symObjAddr: 0x16FC, symBinAddr: 0x10000506C, symSize: 0x14 }
  - { offsetInCU: 0x6043, offset: 0x6043, size: 0x8, addend: 0x0, symName: __ZNSt3__14copyB8ue170006IPKiPiEET0_T_S5_S4_, symObjAddr: 0x1710, symBinAddr: 0x100005080, symSize: 0x40 }
  - { offsetInCU: 0x609D, offset: 0x609D, size: 0x8, addend: 0x0, symName: __ZNSt3__16__copyB8ue170006INS_17_ClassicAlgPolicyEPKiS3_PiEENS_4pairIT0_T2_EES6_T1_S7_, symObjAddr: 0x1750, symBinAddr: 0x1000050C0, symSize: 0x44 }
  - { offsetInCU: 0x6109, offset: 0x6109, size: 0x8, addend: 0x0, symName: __ZNSt3__123__dispatch_copy_or_moveB8ue170006INS_17_ClassicAlgPolicyENS_11__copy_loopIS1_EENS_14__copy_trivialEPKiS6_PiEENS_4pairIT2_T4_EES9_T3_SA_, symObjAddr: 0x1794, symBinAddr: 0x100005104, symSize: 0x44 }
  - { offsetInCU: 0x6187, offset: 0x6187, size: 0x8, addend: 0x0, symName: __ZNSt3__121__unwrap_and_dispatchB8ue170006INS_10__overloadINS_11__copy_loopINS_17_ClassicAlgPolicyEEENS_14__copy_trivialEEEPKiS8_PiLi0EEENS_4pairIT0_T2_EESB_T1_SC_, symObjAddr: 0x17D8, symBinAddr: 0x100005148, symSize: 0xB4 }
  - { offsetInCU: 0x639A, offset: 0x639A, size: 0x8, addend: 0x0, symName: __ZNSt3__19make_pairB8ue170006IPKiPiEENS_4pairINS_18__unwrap_ref_decayIT_E4typeENS5_IT0_E4typeEEEOS6_OS9_, symObjAddr: 0x18D4, symBinAddr: 0x100005244, symSize: 0x38 }
  - { offsetInCU: 0x63E9, offset: 0x63E9, size: 0x8, addend: 0x0, symName: __ZNSt3__114__rewrap_rangeB8ue170006IPKiS2_EET_S3_T0_, symObjAddr: 0x190C, symBinAddr: 0x10000527C, symSize: 0x2C }
  - { offsetInCU: 0x6435, offset: 0x6435, size: 0x8, addend: 0x0, symName: __ZNSt3__119__copy_trivial_implB8ue170006IKiiEENS_4pairIPT_PT0_EES4_S4_S6_, symObjAddr: 0x1938, symBinAddr: 0x1000052A8, symSize: 0x80 }
  - { offsetInCU: 0x649D, offset: 0x649D, size: 0x8, addend: 0x0, symName: __ZNSt3__119__constexpr_memmoveB8ue170006IiKiLi0EEEPT_S3_PT0_NS_15__element_countE, symObjAddr: 0x19B8, symBinAddr: 0x100005328, symSize: 0x64 }
  - { offsetInCU: 0x650B, offset: 0x650B, size: 0x8, addend: 0x0, symName: __ZNSt3__19make_pairB8ue170006IRPKiPiEENS_4pairINS_18__unwrap_ref_decayIT_E4typeENS6_IT0_E4typeEEEOS7_OSA_, symObjAddr: 0x1A1C, symBinAddr: 0x10000538C, symSize: 0x38 }
  - { offsetInCU: 0x655A, offset: 0x655A, size: 0x8, addend: 0x0, symName: __ZNSt3__113__rewrap_iterB8ue170006IPKiS2_NS_18__unwrap_iter_implIS2_Lb1EEEEET_S5_T0_, symObjAddr: 0x1B34, symBinAddr: 0x1000054A4, symSize: 0x3C }
  - { offsetInCU: 0x6602, offset: 0x6602, size: 0x8, addend: 0x0, symName: __ZNSt3__122__make_exception_guardB8ue170006INS_6vectorINS1_IiNS_9allocatorIiEEEENS2_IS4_EEE16__destroy_vectorEEENS_28__exception_guard_exceptionsIT_EES9_, symObjAddr: 0x1DF8, symBinAddr: 0x100005768, symSize: 0x40 }
  - { offsetInCU: 0x6637, offset: 0x6637, size: 0x8, addend: 0x0, symName: __ZNSt3__119__allocate_at_leastB8ue170006INS_9allocatorINS_6vectorIiNS1_IiEEEEEEEENS_19__allocation_resultINS_16allocator_traitsIT_E7pointerEEERS8_m, symObjAddr: 0x2208, symBinAddr: 0x100005B78, symSize: 0x40 }
  - { offsetInCU: 0x667A, offset: 0x667A, size: 0x8, addend: 0x0, symName: __ZNSt3__112__to_addressB8ue170006INS_6vectorIiNS_9allocatorIiEEEEEEPT_S6_, symObjAddr: 0x2550, symBinAddr: 0x100005EC0, symSize: 0x14 }
  - { offsetInCU: 0x66AF, offset: 0x66AF, size: 0x8, addend: 0x0, symName: __ZNSt3__130__uninitialized_allocator_copyB8ue170006INS_9allocatorINS_6vectorIiNS1_IiEEEEEEPKS4_S7_PS4_EET2_RT_T0_T1_S9_, symObjAddr: 0x2600, symBinAddr: 0x100005F70, symSize: 0x80 }
  - { offsetInCU: 0x674C, offset: 0x674C, size: 0x8, addend: 0x0, symName: __ZNSt3__114__unwrap_rangeB8ue170006IPKNS_6vectorIiNS_9allocatorIiEEEES6_EENS_4pairIT0_S8_EET_SA_, symObjAddr: 0x26F8, symBinAddr: 0x100006068, symSize: 0x60 }
  - { offsetInCU: 0x6798, offset: 0x6798, size: 0x8, addend: 0x0, symName: __ZNSt3__135__uninitialized_allocator_copy_implB8ue170006INS_9allocatorINS_6vectorIiNS1_IiEEEEEEPKS4_S7_PS4_EET2_RT_T0_T1_S9_, symObjAddr: 0x2758, symBinAddr: 0x1000060C8, symSize: 0xF4 }
  - { offsetInCU: 0x6836, offset: 0x6836, size: 0x8, addend: 0x0, symName: __ZNSt3__113__unwrap_iterB8ue170006IPNS_6vectorIiNS_9allocatorIiEEEENS_18__unwrap_iter_implIS5_Lb1EEELi0EEEDTclsrT0_8__unwrapclsr3stdE7declvalIT_EEEES9_, symObjAddr: 0x284C, symBinAddr: 0x1000061BC, symSize: 0x24 }
  - { offsetInCU: 0x687A, offset: 0x687A, size: 0x8, addend: 0x0, symName: __ZNSt3__113__rewrap_iterB8ue170006IPNS_6vectorIiNS_9allocatorIiEEEES5_NS_18__unwrap_iter_implIS5_Lb1EEEEET_S8_T0_, symObjAddr: 0x2870, symBinAddr: 0x1000061E0, symSize: 0x3C }
  - { offsetInCU: 0x68CF, offset: 0x68CF, size: 0x8, addend: 0x0, symName: __ZNSt3__19make_pairB8ue170006IPKNS_6vectorIiNS_9allocatorIiEEEES6_EENS_4pairINS_18__unwrap_ref_decayIT_E4typeENS8_IT0_E4typeEEEOS9_OSC_, symObjAddr: 0x28AC, symBinAddr: 0x10000621C, symSize: 0x38 }
  - { offsetInCU: 0x691E, offset: 0x691E, size: 0x8, addend: 0x0, symName: __ZNSt3__113__unwrap_iterB8ue170006IPKNS_6vectorIiNS_9allocatorIiEEEENS_18__unwrap_iter_implIS6_Lb1EEELi0EEEDTclsrT0_8__unwrapclsr3stdE7declvalIT_EEEESA_, symObjAddr: 0x28E4, symBinAddr: 0x100006254, symSize: 0x24 }
  - { offsetInCU: 0x6A89, offset: 0x6A89, size: 0x8, addend: 0x0, symName: __ZNSt3__112__to_addressB8ue170006IKNS_6vectorIiNS_9allocatorIiEEEEEEPT_S7_, symObjAddr: 0x299C, symBinAddr: 0x10000630C, symSize: 0x14 }
  - { offsetInCU: 0x6ABE, offset: 0x6ABE, size: 0x8, addend: 0x0, symName: __ZNSt3__122__make_exception_guardB8ue170006INS_29_AllocatorDestroyRangeReverseINS_9allocatorINS_6vectorIiNS2_IiEEEEEEPS5_EEEENS_28__exception_guard_exceptionsIT_EESA_, symObjAddr: 0x29B0, symBinAddr: 0x100006320, symSize: 0x4C }
  - { offsetInCU: 0x6AF4, offset: 0x6AF4, size: 0x8, addend: 0x0, symName: __ZNSt3__130__uninitialized_allocator_copyB8ue170006INS_9allocatorIiEEPiS3_S3_EET2_RT_T0_T1_S4_, symObjAddr: 0x2E3C, symBinAddr: 0x1000067AC, symSize: 0x80 }
  - { offsetInCU: 0x6B91, offset: 0x6B91, size: 0x8, addend: 0x0, symName: __ZNSt3__114__unwrap_rangeB8ue170006IPiS1_EENS_4pairIT0_S3_EET_S5_, symObjAddr: 0x2EBC, symBinAddr: 0x10000682C, symSize: 0x60 }
  - { offsetInCU: 0x6BDD, offset: 0x6BDD, size: 0x8, addend: 0x0, symName: __ZNSt3__135__uninitialized_allocator_copy_implB8ue170006INS_9allocatorIiEEiiiLPv0EEEPT2_RT_PT0_S9_S5_, symObjAddr: 0x2F1C, symBinAddr: 0x10000688C, symSize: 0x38 }
  - { offsetInCU: 0x6C5E, offset: 0x6C5E, size: 0x8, addend: 0x0, symName: __ZNSt3__19make_pairB8ue170006IPiS1_EENS_4pairINS_18__unwrap_ref_decayIT_E4typeENS3_IT0_E4typeEEEOS4_OS7_, symObjAddr: 0x2F54, symBinAddr: 0x1000068C4, symSize: 0x38 }
  - { offsetInCU: 0x6DB0, offset: 0x6DB0, size: 0x8, addend: 0x0, symName: __ZNSt3__14copyB8ue170006IPiS1_EET0_T_S3_S2_, symObjAddr: 0x2FFC, symBinAddr: 0x10000696C, symSize: 0x40 }
  - { offsetInCU: 0x6E0A, offset: 0x6E0A, size: 0x8, addend: 0x0, symName: __ZNSt3__16__copyB8ue170006INS_17_ClassicAlgPolicyEPiS2_S2_EENS_4pairIT0_T2_EES4_T1_S5_, symObjAddr: 0x303C, symBinAddr: 0x1000069AC, symSize: 0x44 }
  - { offsetInCU: 0x6E76, offset: 0x6E76, size: 0x8, addend: 0x0, symName: __ZNSt3__123__dispatch_copy_or_moveB8ue170006INS_17_ClassicAlgPolicyENS_11__copy_loopIS1_EENS_14__copy_trivialEPiS5_S5_EENS_4pairIT2_T4_EES7_T3_S8_, symObjAddr: 0x3080, symBinAddr: 0x1000069F0, symSize: 0x44 }
  - { offsetInCU: 0x6EF4, offset: 0x6EF4, size: 0x8, addend: 0x0, symName: __ZNSt3__121__unwrap_and_dispatchB8ue170006INS_10__overloadINS_11__copy_loopINS_17_ClassicAlgPolicyEEENS_14__copy_trivialEEEPiS7_S7_Li0EEENS_4pairIT0_T2_EES9_T1_SA_, symObjAddr: 0x30C4, symBinAddr: 0x100006A34, symSize: 0xB4 }
  - { offsetInCU: 0x6F82, offset: 0x6F82, size: 0x8, addend: 0x0, symName: __ZNSt3__114__rewrap_rangeB8ue170006IPiS1_EET_S2_T0_, symObjAddr: 0x31C0, symBinAddr: 0x100006B30, symSize: 0x2C }
  - { offsetInCU: 0x6FCE, offset: 0x6FCE, size: 0x8, addend: 0x0, symName: __ZNSt3__119__copy_trivial_implB8ue170006IiiEENS_4pairIPT_PT0_EES3_S3_S5_, symObjAddr: 0x31EC, symBinAddr: 0x100006B5C, symSize: 0x80 }
  - { offsetInCU: 0x7036, offset: 0x7036, size: 0x8, addend: 0x0, symName: __ZNSt3__119__constexpr_memmoveB8ue170006IiiLi0EEEPT_S2_PT0_NS_15__element_countE, symObjAddr: 0x326C, symBinAddr: 0x100006BDC, symSize: 0x64 }
  - { offsetInCU: 0x70A4, offset: 0x70A4, size: 0x8, addend: 0x0, symName: __ZNSt3__19make_pairB8ue170006IRPiS1_EENS_4pairINS_18__unwrap_ref_decayIT_E4typeENS4_IT0_E4typeEEEOS5_OS8_, symObjAddr: 0x32D0, symBinAddr: 0x100006C40, symSize: 0x38 }
  - { offsetInCU: 0x70F3, offset: 0x70F3, size: 0x8, addend: 0x0, symName: __ZNSt3__119__allocator_destroyB8ue170006INS_9allocatorINS_6vectorIiNS1_IiEEEEEENS_16reverse_iteratorIPS4_EES8_EEvRT_T0_T1_, symObjAddr: 0x3430, symBinAddr: 0x100006DA0, symSize: 0x70 }
  - { offsetInCU: 0x7156, offset: 0x7156, size: 0x8, addend: 0x0, symName: __ZNSt3__1neB8ue170006IPNS_6vectorIiNS_9allocatorIiEEEES5_EEbRKNS_16reverse_iteratorIT_EERKNS6_IT0_EE, symObjAddr: 0x34D4, symBinAddr: 0x100006E44, symSize: 0x48 }
  - { offsetInCU: 0x71A2, offset: 0x71A2, size: 0x8, addend: 0x0, symName: __ZNSt3__112__to_addressB8ue170006INS_16reverse_iteratorIPNS_6vectorIiNS_9allocatorIiEEEEEEvEEu7__decayIDTclsr19__to_address_helperIT_EE6__callclsr3stdE7declvalIRKS8_EEEEESA_, symObjAddr: 0x3548, symBinAddr: 0x100006EB8, symSize: 0x24 }
  - { offsetInCU: 0x7254, offset: 0x7254, size: 0x8, addend: 0x0, symName: __ZNSt3__130__uninitialized_allocator_copyB8ue170006INS_9allocatorINS_6vectorIiNS1_IiEEEEEEPS4_S6_S6_EET2_RT_T0_T1_S7_, symObjAddr: 0x3CDC, symBinAddr: 0x10000764C, symSize: 0x80 }
  - { offsetInCU: 0x72F1, offset: 0x72F1, size: 0x8, addend: 0x0, symName: __ZNSt3__114__unwrap_rangeB8ue170006IPNS_6vectorIiNS_9allocatorIiEEEES5_EENS_4pairIT0_S7_EET_S9_, symObjAddr: 0x3D5C, symBinAddr: 0x1000076CC, symSize: 0x60 }
  - { offsetInCU: 0x733D, offset: 0x733D, size: 0x8, addend: 0x0, symName: __ZNSt3__135__uninitialized_allocator_copy_implB8ue170006INS_9allocatorINS_6vectorIiNS1_IiEEEEEEPS4_S6_S6_EET2_RT_T0_T1_S7_, symObjAddr: 0x3DBC, symBinAddr: 0x10000772C, symSize: 0xF4 }
  - { offsetInCU: 0x73DB, offset: 0x73DB, size: 0x8, addend: 0x0, symName: __ZNSt3__19make_pairB8ue170006IPNS_6vectorIiNS_9allocatorIiEEEES5_EENS_4pairINS_18__unwrap_ref_decayIT_E4typeENS7_IT0_E4typeEEEOS8_OSB_, symObjAddr: 0x3EB0, symBinAddr: 0x100007820, symSize: 0x38 }
  - { offsetInCU: 0x78C9, offset: 0x78C9, size: 0x8, addend: 0x0, symName: __ZSt28__throw_bad_array_new_lengthB8ue170006v, symObjAddr: 0x1330, symBinAddr: 0x100004CA0, symSize: 0x34 }
  - { offsetInCU: 0x9FE3, offset: 0x9FE3, size: 0x8, addend: 0x0, symName: __Z18diagonalDifferenceNSt3__16vectorINS0_IiNS_9allocatorIiEEEENS1_IS3_EEEE, symObjAddr: 0x0, symBinAddr: 0x100003970, symSize: 0x110 }
  - { offsetInCU: 0xA080, offset: 0xA080, size: 0x8, addend: 0x0, symName: __ZNSt3__16vectorINS0_IiNS_9allocatorIiEEEENS1_IS3_EEEixB8ue170006Em, symObjAddr: 0x110, symBinAddr: 0x100003A80, symSize: 0x2C }
  - { offsetInCU: 0xA0B5, offset: 0xA0B5, size: 0x8, addend: 0x0, symName: __ZNKSt3__16vectorIiNS_9allocatorIiEEE4sizeB8ue170006Ev, symObjAddr: 0x13C, symBinAddr: 0x100003AAC, symSize: 0x28 }
  - { offsetInCU: 0xA0D9, offset: 0xA0D9, size: 0x8, addend: 0x0, symName: __ZNSt3__16vectorIiNS_9allocatorIiEEEixB8ue170006Em, symObjAddr: 0x164, symBinAddr: 0x100003AD4, symSize: 0x24 }
  - { offsetInCU: 0xA10E, offset: 0xA10E, size: 0x8, addend: 0x0, symName: _main, symObjAddr: 0x188, symBinAddr: 0x100003AF8, symSize: 0x2B8 }
  - { offsetInCU: 0xA137, offset: 0xA137, size: 0x8, addend: 0x0, symName: __ZNSt3__16vectorIiNS_9allocatorIiEEEC1B8ue170006ESt16initializer_listIiE, symObjAddr: 0x440, symBinAddr: 0x100003DB0, symSize: 0x3C }
  - { offsetInCU: 0xA170, offset: 0xA170, size: 0x8, addend: 0x0, symName: __ZNSt3__16vectorIiNS_9allocatorIiEEED1B8ue170006Ev, symObjAddr: 0x47C, symBinAddr: 0x100003DEC, symSize: 0x2C }
  - { offsetInCU: 0xA198, offset: 0xA198, size: 0x8, addend: 0x0, symName: __ZNSt3__16vectorINS0_IiNS_9allocatorIiEEEENS1_IS3_EEEC1B8ue170006ESt16initializer_listIS3_E, symObjAddr: 0x4A8, symBinAddr: 0x100003E18, symSize: 0x3C }
  - { offsetInCU: 0xA1D1, offset: 0xA1D1, size: 0x8, addend: 0x0, symName: __ZNSt3__16vectorINS0_IiNS_9allocatorIiEEEENS1_IS3_EEEC1ERKS5_, symObjAddr: 0x4E4, symBinAddr: 0x100003E54, symSize: 0x34 }
  - { offsetInCU: 0xA20A, offset: 0xA20A, size: 0x8, addend: 0x0, symName: __ZNSt3__16vectorINS0_IiNS_9allocatorIiEEEENS1_IS3_EEED1B8ue170006Ev, symObjAddr: 0x518, symBinAddr: 0x100003E88, symSize: 0x2C }
  - { offsetInCU: 0xA232, offset: 0xA232, size: 0x8, addend: 0x0, symName: __ZNSt3__16vectorIiNS_9allocatorIiEEED2B8ue170006Ev, symObjAddr: 0x544, symBinAddr: 0x100003EB4, symSize: 0x44 }
  - { offsetInCU: 0xA25A, offset: 0xA25A, size: 0x8, addend: 0x0, symName: __ZNSt3__16vectorIiNS_9allocatorIiEEE16__destroy_vectorC1B8ue170006ERS3_, symObjAddr: 0x588, symBinAddr: 0x100003EF8, symSize: 0x34 }
  - { offsetInCU: 0xA291, offset: 0xA291, size: 0x8, addend: 0x0, symName: __ZNSt3__16vectorIiNS_9allocatorIiEEE16__destroy_vectorclB8ue170006Ev, symObjAddr: 0x5C8, symBinAddr: 0x100003F38, symSize: 0x90 }
  - { offsetInCU: 0xA2B5, offset: 0xA2B5, size: 0x8, addend: 0x0, symName: __ZNSt3__16vectorIiNS_9allocatorIiEEE16__destroy_vectorC2B8ue170006ERS3_, symObjAddr: 0x658, symBinAddr: 0x100003FC8, symSize: 0x20 }
  - { offsetInCU: 0xA2EC, offset: 0xA2EC, size: 0x8, addend: 0x0, symName: __ZNSt3__16vectorIiNS_9allocatorIiEEE7__clearB8ue170006Ev, symObjAddr: 0x678, symBinAddr: 0x100003FE8, symSize: 0x28 }
  - { offsetInCU: 0xA310, offset: 0xA310, size: 0x8, addend: 0x0, symName: __ZNKSt3__16vectorIiNS_9allocatorIiEEE17__annotate_deleteB8ue170006Ev, symObjAddr: 0x6A0, symBinAddr: 0x100004010, symSize: 0xB8 }
  - { offsetInCU: 0xA334, offset: 0xA334, size: 0x8, addend: 0x0, symName: __ZNSt3__116allocator_traitsINS_9allocatorIiEEE10deallocateB8ue170006ERS2_Pim, symObjAddr: 0x758, symBinAddr: 0x1000040C8, symSize: 0x34 }
  - { offsetInCU: 0xA375, offset: 0xA375, size: 0x8, addend: 0x0, symName: __ZNSt3__16vectorIiNS_9allocatorIiEEE7__allocB8ue170006Ev, symObjAddr: 0x78C, symBinAddr: 0x1000040FC, symSize: 0x28 }
  - { offsetInCU: 0xA399, offset: 0xA399, size: 0x8, addend: 0x0, symName: __ZNKSt3__16vectorIiNS_9allocatorIiEEE8capacityB8ue170006Ev, symObjAddr: 0x7B4, symBinAddr: 0x100004124, symSize: 0x40 }
  - { offsetInCU: 0xA3BD, offset: 0xA3BD, size: 0x8, addend: 0x0, symName: __ZNSt3__16vectorIiNS_9allocatorIiEEE22__base_destruct_at_endB8ue170006EPi, symObjAddr: 0x7F4, symBinAddr: 0x100004164, symSize: 0x8C }
  - { offsetInCU: 0xA3FF, offset: 0xA3FF, size: 0x8, addend: 0x0, symName: __ZNSt3__116allocator_traitsINS_9allocatorIiEEE7destroyB8ue170006IivEEvRS2_PT_, symObjAddr: 0x880, symBinAddr: 0x1000041F0, symSize: 0x2C }
  - { offsetInCU: 0xA43B, offset: 0xA43B, size: 0x8, addend: 0x0, symName: __ZNSt3__19allocatorIiE7destroyB8ue170006EPi, symObjAddr: 0x8C0, symBinAddr: 0x100004230, symSize: 0x14 }
  - { offsetInCU: 0xA46D, offset: 0xA46D, size: 0x8, addend: 0x0, symName: __ZNKSt3__16vectorIiNS_9allocatorIiEEE31__annotate_contiguous_containerB8ue170006EPKvS5_S5_S5_, symObjAddr: 0x8D4, symBinAddr: 0x100004244, symSize: 0x20 }
  - { offsetInCU: 0xA4BD, offset: 0xA4BD, size: 0x8, addend: 0x0, symName: __ZNKSt3__16vectorIiNS_9allocatorIiEEE4dataB8ue170006Ev, symObjAddr: 0x8F4, symBinAddr: 0x100004264, symSize: 0x28 }
  - { offsetInCU: 0xA4E1, offset: 0xA4E1, size: 0x8, addend: 0x0, symName: __ZNSt3__19allocatorIiE10deallocateB8ue170006EPim, symObjAddr: 0x91C, symBinAddr: 0x10000428C, symSize: 0x40 }
  - { offsetInCU: 0xA521, offset: 0xA521, size: 0x8, addend: 0x0, symName: __ZNSt3__117__compressed_pairIPiNS_9allocatorIiEEE6secondB8ue170006Ev, symObjAddr: 0x9D8, symBinAddr: 0x100004348, symSize: 0x24 }
  - { offsetInCU: 0xA545, offset: 0xA545, size: 0x8, addend: 0x0, symName: __ZNSt3__122__compressed_pair_elemINS_9allocatorIiEELi1ELb1EE5__getB8ue170006Ev, symObjAddr: 0x9FC, symBinAddr: 0x10000436C, symSize: 0x14 }
  - { offsetInCU: 0xA569, offset: 0xA569, size: 0x8, addend: 0x0, symName: __ZNKSt3__16vectorIiNS_9allocatorIiEEE9__end_capB8ue170006Ev, symObjAddr: 0xA10, symBinAddr: 0x100004380, symSize: 0x28 }
  - { offsetInCU: 0xA58D, offset: 0xA58D, size: 0x8, addend: 0x0, symName: __ZNKSt3__117__compressed_pairIPiNS_9allocatorIiEEE5firstB8ue170006Ev, symObjAddr: 0xA38, symBinAddr: 0x1000043A8, symSize: 0x24 }
  - { offsetInCU: 0xA5B1, offset: 0xA5B1, size: 0x8, addend: 0x0, symName: __ZNKSt3__122__compressed_pair_elemIPiLi0ELb0EE5__getB8ue170006Ev, symObjAddr: 0xA5C, symBinAddr: 0x1000043CC, symSize: 0x14 }
  - { offsetInCU: 0xA5D5, offset: 0xA5D5, size: 0x8, addend: 0x0, symName: __ZNSt3__16vectorIiNS_9allocatorIiEEEC2B8ue170006ESt16initializer_listIiE, symObjAddr: 0xA70, symBinAddr: 0x1000043E0, symSize: 0x120 }
  - { offsetInCU: 0xA62D, offset: 0xA62D, size: 0x8, addend: 0x0, symName: __ZNSt3__117__compressed_pairIPiNS_9allocatorIiEEEC1B8ue170006IDnNS_18__default_init_tagEEEOT_OT0_, symObjAddr: 0xB90, symBinAddr: 0x100004500, symSize: 0x3C }
  - { offsetInCU: 0xA683, offset: 0xA683, size: 0x8, addend: 0x0, symName: __ZNKSt16initializer_listIiE4sizeB8ue170006Ev, symObjAddr: 0xC0C, symBinAddr: 0x10000457C, symSize: 0x18 }
  - { offsetInCU: 0xA6A7, offset: 0xA6A7, size: 0x8, addend: 0x0, symName: __ZNSt3__16vectorIiNS_9allocatorIiEEE11__vallocateB8ue170006Em, symObjAddr: 0xC24, symBinAddr: 0x100004594, symSize: 0xAC }
  - { offsetInCU: 0xA6E9, offset: 0xA6E9, size: 0x8, addend: 0x0, symName: __ZNSt3__16vectorIiNS_9allocatorIiEEE18__construct_at_endIPKiS6_EEvT_T0_m, symObjAddr: 0xCD0, symBinAddr: 0x100004640, symSize: 0x8C }
  - { offsetInCU: 0xA75D, offset: 0xA75D, size: 0x8, addend: 0x0, symName: __ZNKSt16initializer_listIiE5beginB8ue170006Ev, symObjAddr: 0xD5C, symBinAddr: 0x1000046CC, symSize: 0x18 }
  - { offsetInCU: 0xA781, offset: 0xA781, size: 0x8, addend: 0x0, symName: __ZNKSt16initializer_listIiE3endB8ue170006Ev, symObjAddr: 0xD74, symBinAddr: 0x1000046E4, symSize: 0x20 }
  - { offsetInCU: 0xA7A5, offset: 0xA7A5, size: 0x8, addend: 0x0, symName: __ZNSt3__128__exception_guard_exceptionsINS_6vectorIiNS_9allocatorIiEEE16__destroy_vectorEE10__completeB8ue170006Ev, symObjAddr: 0xD94, symBinAddr: 0x100004704, symSize: 0x1C }
  - { offsetInCU: 0xA7C9, offset: 0xA7C9, size: 0x8, addend: 0x0, symName: __ZNSt3__128__exception_guard_exceptionsINS_6vectorIiNS_9allocatorIiEEE16__destroy_vectorEED1B8ue170006Ev, symObjAddr: 0xDB0, symBinAddr: 0x100004720, symSize: 0x2C }
  - { offsetInCU: 0xA7F1, offset: 0xA7F1, size: 0x8, addend: 0x0, symName: __ZNSt3__117__compressed_pairIPiNS_9allocatorIiEEEC2B8ue170006IDnNS_18__default_init_tagEEEOT_OT0_, symObjAddr: 0xDDC, symBinAddr: 0x10000474C, symSize: 0x40 }
  - { offsetInCU: 0xA847, offset: 0xA847, size: 0x8, addend: 0x0, symName: __ZNSt3__122__compressed_pair_elemIPiLi0ELb0EEC2B8ue170006IDnvEEOT_, symObjAddr: 0xE1C, symBinAddr: 0x10000478C, symSize: 0x1C }
  - { offsetInCU: 0xA887, offset: 0xA887, size: 0x8, addend: 0x0, symName: __ZNSt3__122__compressed_pair_elemINS_9allocatorIiEELi1ELb1EEC2B8ue170006ENS_18__default_init_tagE, symObjAddr: 0xE38, symBinAddr: 0x1000047A8, symSize: 0x2C }
  - { offsetInCU: 0xA8B9, offset: 0xA8B9, size: 0x8, addend: 0x0, symName: __ZNSt3__19allocatorIiEC2B8ue170006Ev, symObjAddr: 0xE64, symBinAddr: 0x1000047D4, symSize: 0x2C }
  - { offsetInCU: 0xA8E1, offset: 0xA8E1, size: 0x8, addend: 0x0, symName: __ZNSt3__116__non_trivial_ifILb1ENS_9allocatorIiEEEC2B8ue170006Ev, symObjAddr: 0xE90, symBinAddr: 0x100004800, symSize: 0x14 }
  - { offsetInCU: 0xA909, offset: 0xA909, size: 0x8, addend: 0x0, symName: __ZNSt3__128__exception_guard_exceptionsINS_6vectorIiNS_9allocatorIiEEE16__destroy_vectorEEC1B8ue170006ES5_, symObjAddr: 0xEA4, symBinAddr: 0x100004814, symSize: 0x34 }
  - { offsetInCU: 0xA93F, offset: 0xA93F, size: 0x8, addend: 0x0, symName: __ZNSt3__128__exception_guard_exceptionsINS_6vectorIiNS_9allocatorIiEEE16__destroy_vectorEEC2B8ue170006ES5_, symObjAddr: 0xED8, symBinAddr: 0x100004848, symSize: 0x24 }
  - { offsetInCU: 0xA975, offset: 0xA975, size: 0x8, addend: 0x0, symName: __ZNKSt3__16vectorIiNS_9allocatorIiEEE8max_sizeEv, symObjAddr: 0xEFC, symBinAddr: 0x10000486C, symSize: 0x60 }
  - { offsetInCU: 0xA99B, offset: 0xA99B, size: 0x8, addend: 0x0, symName: __ZNKSt3__16vectorIiNS_9allocatorIiEEE20__throw_length_errorB8ue170006Ev, symObjAddr: 0xF5C, symBinAddr: 0x1000048CC, symSize: 0x1C }
  - { offsetInCU: 0xA9BF, offset: 0xA9BF, size: 0x8, addend: 0x0, symName: __ZNSt3__16vectorIiNS_9allocatorIiEEE9__end_capB8ue170006Ev, symObjAddr: 0xFB8, symBinAddr: 0x100004928, symSize: 0x28 }
  - { offsetInCU: 0xA9E3, offset: 0xA9E3, size: 0x8, addend: 0x0, symName: __ZNKSt3__16vectorIiNS_9allocatorIiEEE14__annotate_newB8ue170006Em, symObjAddr: 0xFE0, symBinAddr: 0x100004950, symSize: 0xAC }
  - { offsetInCU: 0xAA20, offset: 0xAA20, size: 0x8, addend: 0x0, symName: __ZNSt3__116allocator_traitsINS_9allocatorIiEEE8max_sizeB8ue170006IS2_vEEmRKS2_, symObjAddr: 0x10B8, symBinAddr: 0x100004A28, symSize: 0x24 }
  - { offsetInCU: 0xAA4D, offset: 0xAA4D, size: 0x8, addend: 0x0, symName: __ZNKSt3__16vectorIiNS_9allocatorIiEEE7__allocB8ue170006Ev, symObjAddr: 0x10DC, symBinAddr: 0x100004A4C, symSize: 0x28 }
  - { offsetInCU: 0xAA71, offset: 0xAA71, size: 0x8, addend: 0x0, symName: __ZNSt3__114numeric_limitsIlE3maxB8ue170006Ev, symObjAddr: 0x1104, symBinAddr: 0x100004A74, symSize: 0x14 }
  - { offsetInCU: 0xAA98, offset: 0xAA98, size: 0x8, addend: 0x0, symName: __ZNKSt3__16__lessIvvEclB8ue170006ImmEEbRKT_RKT0_, symObjAddr: 0x116C, symBinAddr: 0x100004ADC, symSize: 0x34 }
  - { offsetInCU: 0xAAEA, offset: 0xAAEA, size: 0x8, addend: 0x0, symName: __ZNKSt3__19allocatorIiE8max_sizeB8ue170006Ev, symObjAddr: 0x11A0, symBinAddr: 0x100004B10, symSize: 0x14 }
  - { offsetInCU: 0xAB0E, offset: 0xAB0E, size: 0x8, addend: 0x0, symName: __ZNKSt3__117__compressed_pairIPiNS_9allocatorIiEEE6secondB8ue170006Ev, symObjAddr: 0x11B4, symBinAddr: 0x100004B24, symSize: 0x24 }
  - { offsetInCU: 0xAB32, offset: 0xAB32, size: 0x8, addend: 0x0, symName: __ZNKSt3__122__compressed_pair_elemINS_9allocatorIiEELi1ELb1EE5__getB8ue170006Ev, symObjAddr: 0x11D8, symBinAddr: 0x100004B48, symSize: 0x14 }
  - { offsetInCU: 0xAB56, offset: 0xAB56, size: 0x8, addend: 0x0, symName: __ZNSt3__123__libcpp_numeric_limitsIlLb1EE3maxB8ue170006Ev, symObjAddr: 0x11EC, symBinAddr: 0x100004B5C, symSize: 0x8 }
  - { offsetInCU: 0xAB69, offset: 0xAB69, size: 0x8, addend: 0x0, symName: __ZNSt12length_errorC1B8ue170006EPKc, symObjAddr: 0x1258, symBinAddr: 0x100004BC8, symSize: 0x34 }
  - { offsetInCU: 0xAB9F, offset: 0xAB9F, size: 0x8, addend: 0x0, symName: __ZNSt12length_errorC2B8ue170006EPKc, symObjAddr: 0x128C, symBinAddr: 0x100004BFC, symSize: 0x4C }
  - { offsetInCU: 0xABD5, offset: 0xABD5, size: 0x8, addend: 0x0, symName: __ZNSt3__19allocatorIiE8allocateB8ue170006Em, symObjAddr: 0x12D8, symBinAddr: 0x100004C48, symSize: 0x58 }
  - { offsetInCU: 0xAC07, offset: 0xAC07, size: 0x8, addend: 0x0, symName: __ZNSt3__117__compressed_pairIPiNS_9allocatorIiEEE5firstB8ue170006Ev, symObjAddr: 0x13B0, symBinAddr: 0x100004D20, symSize: 0x24 }
  - { offsetInCU: 0xAC2B, offset: 0xAC2B, size: 0x8, addend: 0x0, symName: __ZNSt3__122__compressed_pair_elemIPiLi0ELb0EE5__getB8ue170006Ev, symObjAddr: 0x13D4, symBinAddr: 0x100004D44, symSize: 0x14 }
  - { offsetInCU: 0xAC68, offset: 0xAC68, size: 0x8, addend: 0x0, symName: __ZNSt3__16vectorIiNS_9allocatorIiEEE21_ConstructTransactionC1B8ue170006ERS3_m, symObjAddr: 0x13E8, symBinAddr: 0x100004D58, symSize: 0x3C }
  - { offsetInCU: 0xACAE, offset: 0xACAE, size: 0x8, addend: 0x0, symName: __ZNSt3__16vectorIiNS_9allocatorIiEEE21_ConstructTransactionD1B8ue170006Ev, symObjAddr: 0x14A4, symBinAddr: 0x100004E14, symSize: 0x2C }
  - { offsetInCU: 0xACD6, offset: 0xACD6, size: 0x8, addend: 0x0, symName: __ZNSt3__16vectorIiNS_9allocatorIiEEE21_ConstructTransactionC2B8ue170006ERS3_m, symObjAddr: 0x14D0, symBinAddr: 0x100004E40, symSize: 0x44 }
  - { offsetInCU: 0xAD3A, offset: 0xAD3A, size: 0x8, addend: 0x0, symName: __ZNSt3__14pairIPKiS2_EC1B8ue170006IS2_S2_LPv0EEEOT_OT0_, symObjAddr: 0x1668, symBinAddr: 0x100004FD8, symSize: 0x3C }
  - { offsetInCU: 0xAD96, offset: 0xAD96, size: 0x8, addend: 0x0, symName: __ZNSt3__14pairIPKiS2_EC2B8ue170006IS2_S2_LPv0EEEOT_OT0_, symObjAddr: 0x16A4, symBinAddr: 0x100005014, symSize: 0x34 }
  - { offsetInCU: 0xADF2, offset: 0xADF2, size: 0x8, addend: 0x0, symName: __ZNSt3__118__unwrap_iter_implIPKiLb1EE8__unwrapB8ue170006ES2_, symObjAddr: 0x16D8, symBinAddr: 0x100005048, symSize: 0x24 }
  - { offsetInCU: 0xAE37, offset: 0xAE37, size: 0x8, addend: 0x0, symName: __ZNKSt3__114__copy_trivialclB8ue170006IKiiLi0EEENS_4pairIPT_PT0_EES5_S5_S7_, symObjAddr: 0x188C, symBinAddr: 0x1000051FC, symSize: 0x48 }
  - { offsetInCU: 0xAEA7, offset: 0xAEA7, size: 0x8, addend: 0x0, symName: __ZNSt3__14pairIPKiPiEC1B8ue170006IRS2_S3_LPv0EEEOT_OT0_, symObjAddr: 0x1A54, symBinAddr: 0x1000053C4, symSize: 0x3C }
  - { offsetInCU: 0xAF03, offset: 0xAF03, size: 0x8, addend: 0x0, symName: __ZNSt3__14pairIPKiPiEC2B8ue170006IRS2_S3_LPv0EEEOT_OT0_, symObjAddr: 0x1A90, symBinAddr: 0x100005400, symSize: 0x34 }
  - { offsetInCU: 0xAF5F, offset: 0xAF5F, size: 0x8, addend: 0x0, symName: __ZNSt3__14pairIPKiPiEC1B8ue170006IS2_S3_LPv0EEEOT_OT0_, symObjAddr: 0x1AC4, symBinAddr: 0x100005434, symSize: 0x3C }
  - { offsetInCU: 0xAFBB, offset: 0xAFBB, size: 0x8, addend: 0x0, symName: __ZNSt3__14pairIPKiPiEC2B8ue170006IS2_S3_LPv0EEEOT_OT0_, symObjAddr: 0x1B00, symBinAddr: 0x100005470, symSize: 0x34 }
  - { offsetInCU: 0xB017, offset: 0xB017, size: 0x8, addend: 0x0, symName: __ZNSt3__118__unwrap_iter_implIPKiLb1EE8__rewrapB8ue170006ES2_S2_, symObjAddr: 0x1B70, symBinAddr: 0x1000054E0, symSize: 0x50 }
  - { offsetInCU: 0xB047, offset: 0xB047, size: 0x8, addend: 0x0, symName: __ZNSt3__118__unwrap_iter_implIPiLb1EE8__unwrapB8ue170006ES1_, symObjAddr: 0x1BC0, symBinAddr: 0x100005530, symSize: 0x24 }
  - { offsetInCU: 0xB069, offset: 0xB069, size: 0x8, addend: 0x0, symName: __ZNSt3__118__unwrap_iter_implIPiLb1EE8__rewrapB8ue170006ES1_S1_, symObjAddr: 0x1BE4, symBinAddr: 0x100005554, symSize: 0x50 }
  - { offsetInCU: 0xB099, offset: 0xB099, size: 0x8, addend: 0x0, symName: __ZNSt3__16vectorIiNS_9allocatorIiEEE21_ConstructTransactionD2B8ue170006Ev, symObjAddr: 0x1C34, symBinAddr: 0x1000055A4, symSize: 0x20 }
  - { offsetInCU: 0xB0C1, offset: 0xB0C1, size: 0x8, addend: 0x0, symName: __ZNSt3__128__exception_guard_exceptionsINS_6vectorIiNS_9allocatorIiEEE16__destroy_vectorEED2B8ue170006Ev, symObjAddr: 0x1C54, symBinAddr: 0x1000055C4, symSize: 0x48 }
  - { offsetInCU: 0xB0E9, offset: 0xB0E9, size: 0x8, addend: 0x0, symName: __ZNSt3__16vectorINS0_IiNS_9allocatorIiEEEENS1_IS3_EEEC2B8ue170006ESt16initializer_listIS3_E, symObjAddr: 0x1C9C, symBinAddr: 0x10000560C, symSize: 0x120 }
  - { offsetInCU: 0xB137, offset: 0xB137, size: 0x8, addend: 0x0, symName: __ZNSt3__117__compressed_pairIPNS_6vectorIiNS_9allocatorIiEEEENS2_IS4_EEEC1B8ue170006IDnNS_18__default_init_tagEEEOT_OT0_, symObjAddr: 0x1DBC, symBinAddr: 0x10000572C, symSize: 0x3C }
  - { offsetInCU: 0xB18D, offset: 0xB18D, size: 0x8, addend: 0x0, symName: __ZNSt3__16vectorINS0_IiNS_9allocatorIiEEEENS1_IS3_EEE16__destroy_vectorC1B8ue170006ERS5_, symObjAddr: 0x1E38, symBinAddr: 0x1000057A8, symSize: 0x34 }
  - { offsetInCU: 0xB1C4, offset: 0xB1C4, size: 0x8, addend: 0x0, symName: __ZNKSt16initializer_listINSt3__16vectorIiNS0_9allocatorIiEEEEE4sizeB8ue170006Ev, symObjAddr: 0x1E6C, symBinAddr: 0x1000057DC, symSize: 0x18 }
  - { offsetInCU: 0xB1E8, offset: 0xB1E8, size: 0x8, addend: 0x0, symName: __ZNSt3__16vectorINS0_IiNS_9allocatorIiEEEENS1_IS3_EEE11__vallocateB8ue170006Em, symObjAddr: 0x1E84, symBinAddr: 0x1000057F4, symSize: 0xB4 }
  - { offsetInCU: 0xB22A, offset: 0xB22A, size: 0x8, addend: 0x0, symName: __ZNSt3__16vectorINS0_IiNS_9allocatorIiEEEENS1_IS3_EEE18__construct_at_endIPKS3_S8_EEvT_T0_m, symObjAddr: 0x1F38, symBinAddr: 0x1000058A8, symSize: 0x8C }
  - { offsetInCU: 0xB29E, offset: 0xB29E, size: 0x8, addend: 0x0, symName: __ZNKSt16initializer_listINSt3__16vectorIiNS0_9allocatorIiEEEEE5beginB8ue170006Ev, symObjAddr: 0x1FC4, symBinAddr: 0x100005934, symSize: 0x18 }
  - { offsetInCU: 0xB2C2, offset: 0xB2C2, size: 0x8, addend: 0x0, symName: __ZNKSt16initializer_listINSt3__16vectorIiNS0_9allocatorIiEEEEE3endB8ue170006Ev, symObjAddr: 0x1FDC, symBinAddr: 0x10000594C, symSize: 0x28 }
  - { offsetInCU: 0xB2E6, offset: 0xB2E6, size: 0x8, addend: 0x0, symName: __ZNSt3__128__exception_guard_exceptionsINS_6vectorINS1_IiNS_9allocatorIiEEEENS2_IS4_EEE16__destroy_vectorEE10__completeB8ue170006Ev, symObjAddr: 0x2004, symBinAddr: 0x100005974, symSize: 0x1C }
  - { offsetInCU: 0xB30A, offset: 0xB30A, size: 0x8, addend: 0x0, symName: __ZNSt3__128__exception_guard_exceptionsINS_6vectorINS1_IiNS_9allocatorIiEEEENS2_IS4_EEE16__destroy_vectorEED1B8ue170006Ev, symObjAddr: 0x2020, symBinAddr: 0x100005990, symSize: 0x2C }
  - { offsetInCU: 0xB332, offset: 0xB332, size: 0x8, addend: 0x0, symName: __ZNSt3__117__compressed_pairIPNS_6vectorIiNS_9allocatorIiEEEENS2_IS4_EEEC2B8ue170006IDnNS_18__default_init_tagEEEOT_OT0_, symObjAddr: 0x204C, symBinAddr: 0x1000059BC, symSize: 0x40 }
  - { offsetInCU: 0xB388, offset: 0xB388, size: 0x8, addend: 0x0, symName: __ZNSt3__122__compressed_pair_elemIPNS_6vectorIiNS_9allocatorIiEEEELi0ELb0EEC2B8ue170006IDnvEEOT_, symObjAddr: 0x208C, symBinAddr: 0x1000059FC, symSize: 0x1C }
  - { offsetInCU: 0xB3C8, offset: 0xB3C8, size: 0x8, addend: 0x0, symName: __ZNSt3__122__compressed_pair_elemINS_9allocatorINS_6vectorIiNS1_IiEEEEEELi1ELb1EEC2B8ue170006ENS_18__default_init_tagE, symObjAddr: 0x20A8, symBinAddr: 0x100005A18, symSize: 0x2C }
  - { offsetInCU: 0xB3FA, offset: 0xB3FA, size: 0x8, addend: 0x0, symName: __ZNSt3__19allocatorINS_6vectorIiNS0_IiEEEEEC2B8ue170006Ev, symObjAddr: 0x20D4, symBinAddr: 0x100005A44, symSize: 0x2C }
  - { offsetInCU: 0xB422, offset: 0xB422, size: 0x8, addend: 0x0, symName: __ZNSt3__116__non_trivial_ifILb1ENS_9allocatorINS_6vectorIiNS1_IiEEEEEEEC2B8ue170006Ev, symObjAddr: 0x2100, symBinAddr: 0x100005A70, symSize: 0x14 }
  - { offsetInCU: 0xB44A, offset: 0xB44A, size: 0x8, addend: 0x0, symName: __ZNSt3__128__exception_guard_exceptionsINS_6vectorINS1_IiNS_9allocatorIiEEEENS2_IS4_EEE16__destroy_vectorEEC1B8ue170006ES7_, symObjAddr: 0x2114, symBinAddr: 0x100005A84, symSize: 0x34 }
  - { offsetInCU: 0xB480, offset: 0xB480, size: 0x8, addend: 0x0, symName: __ZNSt3__128__exception_guard_exceptionsINS_6vectorINS1_IiNS_9allocatorIiEEEENS2_IS4_EEE16__destroy_vectorEEC2B8ue170006ES7_, symObjAddr: 0x2148, symBinAddr: 0x100005AB8, symSize: 0x24 }
  - { offsetInCU: 0xB4B6, offset: 0xB4B6, size: 0x8, addend: 0x0, symName: __ZNSt3__16vectorINS0_IiNS_9allocatorIiEEEENS1_IS3_EEE16__destroy_vectorC2B8ue170006ERS5_, symObjAddr: 0x216C, symBinAddr: 0x100005ADC, symSize: 0x20 }
  - { offsetInCU: 0xB4ED, offset: 0xB4ED, size: 0x8, addend: 0x0, symName: __ZNKSt3__16vectorINS0_IiNS_9allocatorIiEEEENS1_IS3_EEE8max_sizeEv, symObjAddr: 0x218C, symBinAddr: 0x100005AFC, symSize: 0x60 }
  - { offsetInCU: 0xB513, offset: 0xB513, size: 0x8, addend: 0x0, symName: __ZNKSt3__16vectorINS0_IiNS_9allocatorIiEEEENS1_IS3_EEE20__throw_length_errorB8ue170006Ev, symObjAddr: 0x21EC, symBinAddr: 0x100005B5C, symSize: 0x1C }
  - { offsetInCU: 0xB537, offset: 0xB537, size: 0x8, addend: 0x0, symName: __ZNSt3__16vectorINS0_IiNS_9allocatorIiEEEENS1_IS3_EEE7__allocB8ue170006Ev, symObjAddr: 0x2248, symBinAddr: 0x100005BB8, symSize: 0x28 }
  - { offsetInCU: 0xB55B, offset: 0xB55B, size: 0x8, addend: 0x0, symName: __ZNSt3__16vectorINS0_IiNS_9allocatorIiEEEENS1_IS3_EEE9__end_capB8ue170006Ev, symObjAddr: 0x2270, symBinAddr: 0x100005BE0, symSize: 0x28 }
  - { offsetInCU: 0xB57F, offset: 0xB57F, size: 0x8, addend: 0x0, symName: __ZNKSt3__16vectorINS0_IiNS_9allocatorIiEEEENS1_IS3_EEE14__annotate_newB8ue170006Em, symObjAddr: 0x2298, symBinAddr: 0x100005C08, symSize: 0xC8 }
  - { offsetInCU: 0xB5BC, offset: 0xB5BC, size: 0x8, addend: 0x0, symName: __ZNSt3__116allocator_traitsINS_9allocatorINS_6vectorIiNS1_IiEEEEEEE8max_sizeB8ue170006IS5_vEEmRKS5_, symObjAddr: 0x2360, symBinAddr: 0x100005CD0, symSize: 0x24 }
  - { offsetInCU: 0xB5E9, offset: 0xB5E9, size: 0x8, addend: 0x0, symName: __ZNKSt3__16vectorINS0_IiNS_9allocatorIiEEEENS1_IS3_EEE7__allocB8ue170006Ev, symObjAddr: 0x2384, symBinAddr: 0x100005CF4, symSize: 0x28 }
  - { offsetInCU: 0xB60D, offset: 0xB60D, size: 0x8, addend: 0x0, symName: __ZNKSt3__19allocatorINS_6vectorIiNS0_IiEEEEE8max_sizeB8ue170006Ev, symObjAddr: 0x23AC, symBinAddr: 0x100005D1C, symSize: 0x18 }
  - { offsetInCU: 0xB631, offset: 0xB631, size: 0x8, addend: 0x0, symName: __ZNKSt3__117__compressed_pairIPNS_6vectorIiNS_9allocatorIiEEEENS2_IS4_EEE6secondB8ue170006Ev, symObjAddr: 0x23C4, symBinAddr: 0x100005D34, symSize: 0x24 }
  - { offsetInCU: 0xB655, offset: 0xB655, size: 0x8, addend: 0x0, symName: __ZNKSt3__122__compressed_pair_elemINS_9allocatorINS_6vectorIiNS1_IiEEEEEELi1ELb1EE5__getB8ue170006Ev, symObjAddr: 0x23E8, symBinAddr: 0x100005D58, symSize: 0x14 }
  - { offsetInCU: 0xB679, offset: 0xB679, size: 0x8, addend: 0x0, symName: __ZNSt3__19allocatorINS_6vectorIiNS0_IiEEEEE8allocateB8ue170006Em, symObjAddr: 0x23FC, symBinAddr: 0x100005D6C, symSize: 0x5C }
  - { offsetInCU: 0xB6AB, offset: 0xB6AB, size: 0x8, addend: 0x0, symName: __ZNSt3__117__compressed_pairIPNS_6vectorIiNS_9allocatorIiEEEENS2_IS4_EEE6secondB8ue170006Ev, symObjAddr: 0x2458, symBinAddr: 0x100005DC8, symSize: 0x24 }
  - { offsetInCU: 0xB6CF, offset: 0xB6CF, size: 0x8, addend: 0x0, symName: __ZNSt3__122__compressed_pair_elemINS_9allocatorINS_6vectorIiNS1_IiEEEEEELi1ELb1EE5__getB8ue170006Ev, symObjAddr: 0x247C, symBinAddr: 0x100005DEC, symSize: 0x14 }
  - { offsetInCU: 0xB6F3, offset: 0xB6F3, size: 0x8, addend: 0x0, symName: __ZNSt3__117__compressed_pairIPNS_6vectorIiNS_9allocatorIiEEEENS2_IS4_EEE5firstB8ue170006Ev, symObjAddr: 0x2490, symBinAddr: 0x100005E00, symSize: 0x24 }
  - { offsetInCU: 0xB717, offset: 0xB717, size: 0x8, addend: 0x0, symName: __ZNSt3__122__compressed_pair_elemIPNS_6vectorIiNS_9allocatorIiEEEELi0ELb0EE5__getB8ue170006Ev, symObjAddr: 0x24B4, symBinAddr: 0x100005E24, symSize: 0x14 }
  - { offsetInCU: 0xB73B, offset: 0xB73B, size: 0x8, addend: 0x0, symName: __ZNKSt3__16vectorINS0_IiNS_9allocatorIiEEEENS1_IS3_EEE31__annotate_contiguous_containerB8ue170006EPKvS7_S7_S7_, symObjAddr: 0x24C8, symBinAddr: 0x100005E38, symSize: 0x20 }
  - { offsetInCU: 0xB78B, offset: 0xB78B, size: 0x8, addend: 0x0, symName: __ZNKSt3__16vectorINS0_IiNS_9allocatorIiEEEENS1_IS3_EEE4dataB8ue170006Ev, symObjAddr: 0x24E8, symBinAddr: 0x100005E58, symSize: 0x28 }
  - { offsetInCU: 0xB7AF, offset: 0xB7AF, size: 0x8, addend: 0x0, symName: __ZNKSt3__16vectorINS0_IiNS_9allocatorIiEEEENS1_IS3_EEE8capacityB8ue170006Ev, symObjAddr: 0x2510, symBinAddr: 0x100005E80, symSize: 0x40 }
  - { offsetInCU: 0xB7D3, offset: 0xB7D3, size: 0x8, addend: 0x0, symName: __ZNKSt3__16vectorINS0_IiNS_9allocatorIiEEEENS1_IS3_EEE9__end_capB8ue170006Ev, symObjAddr: 0x2564, symBinAddr: 0x100005ED4, symSize: 0x28 }
  - { offsetInCU: 0xB7F7, offset: 0xB7F7, size: 0x8, addend: 0x0, symName: __ZNKSt3__117__compressed_pairIPNS_6vectorIiNS_9allocatorIiEEEENS2_IS4_EEE5firstB8ue170006Ev, symObjAddr: 0x258C, symBinAddr: 0x100005EFC, symSize: 0x24 }
  - { offsetInCU: 0xB81B, offset: 0xB81B, size: 0x8, addend: 0x0, symName: __ZNKSt3__122__compressed_pair_elemIPNS_6vectorIiNS_9allocatorIiEEEELi0ELb0EE5__getB8ue170006Ev, symObjAddr: 0x25B0, symBinAddr: 0x100005F20, symSize: 0x14 }
  - { offsetInCU: 0xB858, offset: 0xB858, size: 0x8, addend: 0x0, symName: __ZNSt3__16vectorINS0_IiNS_9allocatorIiEEEENS1_IS3_EEE21_ConstructTransactionC1B8ue170006ERS5_m, symObjAddr: 0x25C4, symBinAddr: 0x100005F34, symSize: 0x3C }
  - { offsetInCU: 0xB89E, offset: 0xB89E, size: 0x8, addend: 0x0, symName: __ZNSt3__16vectorINS0_IiNS_9allocatorIiEEEENS1_IS3_EEE21_ConstructTransactionD1B8ue170006Ev, symObjAddr: 0x2680, symBinAddr: 0x100005FF0, symSize: 0x2C }
  - { offsetInCU: 0xB8C6, offset: 0xB8C6, size: 0x8, addend: 0x0, symName: __ZNSt3__16vectorINS0_IiNS_9allocatorIiEEEENS1_IS3_EEE21_ConstructTransactionC2B8ue170006ERS5_m, symObjAddr: 0x26AC, symBinAddr: 0x10000601C, symSize: 0x4C }
  - { offsetInCU: 0xB92A, offset: 0xB92A, size: 0x8, addend: 0x0, symName: __ZNSt3__14pairIPKNS_6vectorIiNS_9allocatorIiEEEES6_EC1B8ue170006IS6_S6_LPv0EEEOT_OT0_, symObjAddr: 0x2908, symBinAddr: 0x100006278, symSize: 0x3C }
  - { offsetInCU: 0xB986, offset: 0xB986, size: 0x8, addend: 0x0, symName: __ZNSt3__14pairIPKNS_6vectorIiNS_9allocatorIiEEEES6_EC2B8ue170006IS6_S6_LPv0EEEOT_OT0_, symObjAddr: 0x2944, symBinAddr: 0x1000062B4, symSize: 0x34 }
  - { offsetInCU: 0xB9E2, offset: 0xB9E2, size: 0x8, addend: 0x0, symName: __ZNSt3__118__unwrap_iter_implIPKNS_6vectorIiNS_9allocatorIiEEEELb1EE8__unwrapB8ue170006ES6_, symObjAddr: 0x2978, symBinAddr: 0x1000062E8, symSize: 0x24 }
  - { offsetInCU: 0xBA04, offset: 0xBA04, size: 0x8, addend: 0x0, symName: __ZNSt3__129_AllocatorDestroyRangeReverseINS_9allocatorINS_6vectorIiNS1_IiEEEEEEPS4_EC1B8ue170006ERS5_RS6_S9_, symObjAddr: 0x29FC, symBinAddr: 0x10000636C, symSize: 0x44 }
  - { offsetInCU: 0xBA59, offset: 0xBA59, size: 0x8, addend: 0x0, symName: __ZNSt3__116allocator_traitsINS_9allocatorINS_6vectorIiNS1_IiEEEEEEE9constructB8ue170006IS4_JRKS4_EvEEvRS5_PT_DpOT0_, symObjAddr: 0x2A40, symBinAddr: 0x1000063B0, symSize: 0x34 }
  - { offsetInCU: 0xBAAF, offset: 0xBAAF, size: 0x8, addend: 0x0, symName: __ZNSt3__128__exception_guard_exceptionsINS_29_AllocatorDestroyRangeReverseINS_9allocatorINS_6vectorIiNS2_IiEEEEEEPS5_EEE10__completeB8ue170006Ev, symObjAddr: 0x2A74, symBinAddr: 0x1000063E4, symSize: 0x1C }
  - { offsetInCU: 0xBAD3, offset: 0xBAD3, size: 0x8, addend: 0x0, symName: __ZNSt3__128__exception_guard_exceptionsINS_29_AllocatorDestroyRangeReverseINS_9allocatorINS_6vectorIiNS2_IiEEEEEEPS5_EEED1B8ue170006Ev, symObjAddr: 0x2A90, symBinAddr: 0x100006400, symSize: 0x2C }
  - { offsetInCU: 0xBAFB, offset: 0xBAFB, size: 0x8, addend: 0x0, symName: __ZNSt3__128__exception_guard_exceptionsINS_29_AllocatorDestroyRangeReverseINS_9allocatorINS_6vectorIiNS2_IiEEEEEEPS5_EEEC1B8ue170006ES8_, symObjAddr: 0x2ABC, symBinAddr: 0x10000642C, symSize: 0x34 }
  - { offsetInCU: 0xBB32, offset: 0xBB32, size: 0x8, addend: 0x0, symName: __ZNSt3__128__exception_guard_exceptionsINS_29_AllocatorDestroyRangeReverseINS_9allocatorINS_6vectorIiNS2_IiEEEEEEPS5_EEEC2B8ue170006ES8_, symObjAddr: 0x2AF0, symBinAddr: 0x100006460, symSize: 0x30 }
  - { offsetInCU: 0xBB69, offset: 0xBB69, size: 0x8, addend: 0x0, symName: __ZNSt3__129_AllocatorDestroyRangeReverseINS_9allocatorINS_6vectorIiNS1_IiEEEEEEPS4_EC2B8ue170006ERS5_RS6_S9_, symObjAddr: 0x2B20, symBinAddr: 0x100006490, symSize: 0x38 }
  - { offsetInCU: 0xBBBE, offset: 0xBBBE, size: 0x8, addend: 0x0, symName: __ZNSt3__19allocatorINS_6vectorIiNS0_IiEEEEE9constructB8ue170006IS3_JRKS3_EEEvPT_DpOT0_, symObjAddr: 0x2B58, symBinAddr: 0x1000064C8, symSize: 0x30 }
  - { offsetInCU: 0xBC12, offset: 0xBC12, size: 0x8, addend: 0x0, symName: __ZNSt3__16vectorIiNS_9allocatorIiEEEC1ERKS3_, symObjAddr: 0x2B88, symBinAddr: 0x1000064F8, symSize: 0x34 }
  - { offsetInCU: 0xBC4B, offset: 0xBC4B, size: 0x8, addend: 0x0, symName: __ZNSt3__16vectorIiNS_9allocatorIiEEEC2ERKS3_, symObjAddr: 0x2BBC, symBinAddr: 0x10000652C, symSize: 0x94 }
  - { offsetInCU: 0xBC85, offset: 0xBC85, size: 0x8, addend: 0x0, symName: __ZNSt3__116allocator_traitsINS_9allocatorIiEEE37select_on_container_copy_constructionB8ue170006IS2_vvEES2_RKS2_, symObjAddr: 0x2C50, symBinAddr: 0x1000065C0, symSize: 0x10 }
  - { offsetInCU: 0xBCB7, offset: 0xBCB7, size: 0x8, addend: 0x0, symName: __ZNSt3__117__compressed_pairIPiNS_9allocatorIiEEEC1B8ue170006IDnS3_EEOT_OT0_, symObjAddr: 0x2C60, symBinAddr: 0x1000065D0, symSize: 0x3C }
  - { offsetInCU: 0xBD0D, offset: 0xBD0D, size: 0x8, addend: 0x0, symName: __ZNSt3__16vectorIiNS_9allocatorIiEEE16__init_with_sizeB8ue170006IPiS5_EEvT_T0_m, symObjAddr: 0x2C9C, symBinAddr: 0x10000660C, symSize: 0xB8 }
  - { offsetInCU: 0xBD7F, offset: 0xBD7F, size: 0x8, addend: 0x0, symName: __ZNSt3__117__compressed_pairIPiNS_9allocatorIiEEEC2B8ue170006IDnS3_EEOT_OT0_, symObjAddr: 0x2D54, symBinAddr: 0x1000066C4, symSize: 0x44 }
  - { offsetInCU: 0xBDD5, offset: 0xBDD5, size: 0x8, addend: 0x0, symName: __ZNSt3__122__compressed_pair_elemINS_9allocatorIiEELi1ELb1EEC2B8ue170006IS2_vEEOT_, symObjAddr: 0x2D98, symBinAddr: 0x100006708, symSize: 0x18 }
  - { offsetInCU: 0xBE15, offset: 0xBE15, size: 0x8, addend: 0x0, symName: __ZNSt3__16vectorIiNS_9allocatorIiEEE18__construct_at_endIPiS5_EEvT_T0_m, symObjAddr: 0x2DB0, symBinAddr: 0x100006720, symSize: 0x8C }
  - { offsetInCU: 0xBEA2, offset: 0xBEA2, size: 0x8, addend: 0x0, symName: __ZNSt3__14pairIPiS1_EC1B8ue170006IS1_S1_LPv0EEEOT_OT0_, symObjAddr: 0x2F8C, symBinAddr: 0x1000068FC, symSize: 0x3C }
  - { offsetInCU: 0xBEFE, offset: 0xBEFE, size: 0x8, addend: 0x0, symName: __ZNSt3__14pairIPiS1_EC2B8ue170006IS1_S1_LPv0EEEOT_OT0_, symObjAddr: 0x2FC8, symBinAddr: 0x100006938, symSize: 0x34 }
  - { offsetInCU: 0xBF5A, offset: 0xBF5A, size: 0x8, addend: 0x0, symName: __ZNKSt3__114__copy_trivialclB8ue170006IiiLi0EEENS_4pairIPT_PT0_EES4_S4_S6_, symObjAddr: 0x3178, symBinAddr: 0x100006AE8, symSize: 0x48 }
  - { offsetInCU: 0xBFC0, offset: 0xBFC0, size: 0x8, addend: 0x0, symName: __ZNSt3__14pairIPiS1_EC1B8ue170006IRS1_S1_LPv0EEEOT_OT0_, symObjAddr: 0x3308, symBinAddr: 0x100006C78, symSize: 0x3C }
  - { offsetInCU: 0xC01C, offset: 0xC01C, size: 0x8, addend: 0x0, symName: __ZNSt3__14pairIPiS1_EC2B8ue170006IRS1_S1_LPv0EEEOT_OT0_, symObjAddr: 0x3344, symBinAddr: 0x100006CB4, symSize: 0x34 }
  - { offsetInCU: 0xC078, offset: 0xC078, size: 0x8, addend: 0x0, symName: __ZNSt3__128__exception_guard_exceptionsINS_29_AllocatorDestroyRangeReverseINS_9allocatorINS_6vectorIiNS2_IiEEEEEEPS5_EEED2B8ue170006Ev, symObjAddr: 0x3378, symBinAddr: 0x100006CE8, symSize: 0x50 }
  - { offsetInCU: 0xC0A0, offset: 0xC0A0, size: 0x8, addend: 0x0, symName: __ZNKSt3__129_AllocatorDestroyRangeReverseINS_9allocatorINS_6vectorIiNS1_IiEEEEEEPS4_EclB8ue170006Ev, symObjAddr: 0x33C8, symBinAddr: 0x100006D38, symSize: 0x68 }
  - { offsetInCU: 0xC0C4, offset: 0xC0C4, size: 0x8, addend: 0x0, symName: __ZNSt3__116reverse_iteratorIPNS_6vectorIiNS_9allocatorIiEEEEEC1B8ue170006ES5_, symObjAddr: 0x34A0, symBinAddr: 0x100006E10, symSize: 0x34 }
  - { offsetInCU: 0xC0FA, offset: 0xC0FA, size: 0x8, addend: 0x0, symName: __ZNSt3__116allocator_traitsINS_9allocatorINS_6vectorIiNS1_IiEEEEEEE7destroyB8ue170006IS4_vEEvRS5_PT_, symObjAddr: 0x351C, symBinAddr: 0x100006E8C, symSize: 0x2C }
  - { offsetInCU: 0xC136, offset: 0xC136, size: 0x8, addend: 0x0, symName: __ZNSt3__116reverse_iteratorIPNS_6vectorIiNS_9allocatorIiEEEEEppB8ue170006Ev, symObjAddr: 0x356C, symBinAddr: 0x100006EDC, symSize: 0x20 }
  - { offsetInCU: 0xC15A, offset: 0xC15A, size: 0x8, addend: 0x0, symName: __ZNKSt3__116reverse_iteratorIPNS_6vectorIiNS_9allocatorIiEEEEE4baseB8ue170006Ev, symObjAddr: 0x358C, symBinAddr: 0x100006EFC, symSize: 0x18 }
  - { offsetInCU: 0xC17E, offset: 0xC17E, size: 0x8, addend: 0x0, symName: __ZNSt3__19allocatorINS_6vectorIiNS0_IiEEEEE7destroyB8ue170006EPS3_, symObjAddr: 0x35A4, symBinAddr: 0x100006F14, symSize: 0x28 }
  - { offsetInCU: 0xC1B5, offset: 0xC1B5, size: 0x8, addend: 0x0, symName: __ZNSt3__119__to_address_helperINS_16reverse_iteratorIPNS_6vectorIiNS_9allocatorIiEEEEEEvE6__callB8ue170006ERKS7_, symObjAddr: 0x35CC, symBinAddr: 0x100006F3C, symSize: 0x38 }
  - { offsetInCU: 0xC1D7, offset: 0xC1D7, size: 0x8, addend: 0x0, symName: __ZNKSt3__116reverse_iteratorIPNS_6vectorIiNS_9allocatorIiEEEEEptB8ue170006Ev, symObjAddr: 0x3604, symBinAddr: 0x100006F74, symSize: 0x24 }
  - { offsetInCU: 0xC1FB, offset: 0xC1FB, size: 0x8, addend: 0x0, symName: __ZNKSt3__116reverse_iteratorIPNS_6vectorIiNS_9allocatorIiEEEEEdeB8ue170006Ev, symObjAddr: 0x3628, symBinAddr: 0x100006F98, symSize: 0x28 }
  - { offsetInCU: 0xC22D, offset: 0xC22D, size: 0x8, addend: 0x0, symName: __ZNSt3__116reverse_iteratorIPNS_6vectorIiNS_9allocatorIiEEEEEC2B8ue170006ES5_, symObjAddr: 0x3650, symBinAddr: 0x100006FC0, symSize: 0x28 }
  - { offsetInCU: 0xC263, offset: 0xC263, size: 0x8, addend: 0x0, symName: __ZNSt3__118__unwrap_iter_implIPNS_6vectorIiNS_9allocatorIiEEEELb1EE8__unwrapB8ue170006ES5_, symObjAddr: 0x3678, symBinAddr: 0x100006FE8, symSize: 0x24 }
  - { offsetInCU: 0xC285, offset: 0xC285, size: 0x8, addend: 0x0, symName: __ZNSt3__118__unwrap_iter_implIPNS_6vectorIiNS_9allocatorIiEEEELb1EE8__rewrapB8ue170006ES5_S5_, symObjAddr: 0x369C, symBinAddr: 0x10000700C, symSize: 0x58 }
  - { offsetInCU: 0xC2B5, offset: 0xC2B5, size: 0x8, addend: 0x0, symName: __ZNSt3__16vectorINS0_IiNS_9allocatorIiEEEENS1_IS3_EEE21_ConstructTransactionD2B8ue170006Ev, symObjAddr: 0x36F4, symBinAddr: 0x100007064, symSize: 0x20 }
  - { offsetInCU: 0xC2DD, offset: 0xC2DD, size: 0x8, addend: 0x0, symName: __ZNSt3__128__exception_guard_exceptionsINS_6vectorINS1_IiNS_9allocatorIiEEEENS2_IS4_EEE16__destroy_vectorEED2B8ue170006Ev, symObjAddr: 0x3714, symBinAddr: 0x100007084, symSize: 0x50 }
  - { offsetInCU: 0xC305, offset: 0xC305, size: 0x8, addend: 0x0, symName: __ZNSt3__16vectorINS0_IiNS_9allocatorIiEEEENS1_IS3_EEE16__destroy_vectorclB8ue170006Ev, symObjAddr: 0x3764, symBinAddr: 0x1000070D4, symSize: 0x90 }
  - { offsetInCU: 0xC329, offset: 0xC329, size: 0x8, addend: 0x0, symName: __ZNSt3__16vectorINS0_IiNS_9allocatorIiEEEENS1_IS3_EEE7__clearB8ue170006Ev, symObjAddr: 0x37F4, symBinAddr: 0x100007164, symSize: 0x28 }
  - { offsetInCU: 0xC34D, offset: 0xC34D, size: 0x8, addend: 0x0, symName: __ZNKSt3__16vectorINS0_IiNS_9allocatorIiEEEENS1_IS3_EEE17__annotate_deleteB8ue170006Ev, symObjAddr: 0x381C, symBinAddr: 0x10000718C, symSize: 0xD4 }
  - { offsetInCU: 0xC371, offset: 0xC371, size: 0x8, addend: 0x0, symName: __ZNSt3__116allocator_traitsINS_9allocatorINS_6vectorIiNS1_IiEEEEEEE10deallocateB8ue170006ERS5_PS4_m, symObjAddr: 0x38F0, symBinAddr: 0x100007260, symSize: 0x34 }
  - { offsetInCU: 0xC3B2, offset: 0xC3B2, size: 0x8, addend: 0x0, symName: __ZNSt3__16vectorINS0_IiNS_9allocatorIiEEEENS1_IS3_EEE22__base_destruct_at_endB8ue170006EPS3_, symObjAddr: 0x3924, symBinAddr: 0x100007294, symSize: 0x8C }
  - { offsetInCU: 0xC3F4, offset: 0xC3F4, size: 0x8, addend: 0x0, symName: __ZNKSt3__16vectorINS0_IiNS_9allocatorIiEEEENS1_IS3_EEE4sizeB8ue170006Ev, symObjAddr: 0x39B0, symBinAddr: 0x100007320, symSize: 0x28 }
  - { offsetInCU: 0xC418, offset: 0xC418, size: 0x8, addend: 0x0, symName: __ZNSt3__19allocatorINS_6vectorIiNS0_IiEEEEE10deallocateB8ue170006EPS3_m, symObjAddr: 0x39D8, symBinAddr: 0x100007348, symSize: 0x44 }
  - { offsetInCU: 0xC458, offset: 0xC458, size: 0x8, addend: 0x0, symName: __ZNSt3__16vectorINS0_IiNS_9allocatorIiEEEENS1_IS3_EEED2B8ue170006Ev, symObjAddr: 0x3A1C, symBinAddr: 0x10000738C, symSize: 0x40 }
  - { offsetInCU: 0xC480, offset: 0xC480, size: 0x8, addend: 0x0, symName: __ZNSt3__16vectorINS0_IiNS_9allocatorIiEEEENS1_IS3_EEEC2ERKS5_, symObjAddr: 0x3A5C, symBinAddr: 0x1000073CC, symSize: 0x94 }
  - { offsetInCU: 0xC4BA, offset: 0xC4BA, size: 0x8, addend: 0x0, symName: __ZNSt3__116allocator_traitsINS_9allocatorINS_6vectorIiNS1_IiEEEEEEE37select_on_container_copy_constructionB8ue170006IS5_vvEES5_RKS5_, symObjAddr: 0x3AF0, symBinAddr: 0x100007460, symSize: 0x10 }
  - { offsetInCU: 0xC4EC, offset: 0xC4EC, size: 0x8, addend: 0x0, symName: __ZNSt3__117__compressed_pairIPNS_6vectorIiNS_9allocatorIiEEEENS2_IS4_EEEC1B8ue170006IDnS6_EEOT_OT0_, symObjAddr: 0x3B00, symBinAddr: 0x100007470, symSize: 0x3C }
  - { offsetInCU: 0xC542, offset: 0xC542, size: 0x8, addend: 0x0, symName: __ZNSt3__16vectorINS0_IiNS_9allocatorIiEEEENS1_IS3_EEE16__init_with_sizeB8ue170006IPS3_S7_EEvT_T0_m, symObjAddr: 0x3B3C, symBinAddr: 0x1000074AC, symSize: 0xB8 }
  - { offsetInCU: 0xC5B4, offset: 0xC5B4, size: 0x8, addend: 0x0, symName: __ZNSt3__117__compressed_pairIPNS_6vectorIiNS_9allocatorIiEEEENS2_IS4_EEEC2B8ue170006IDnS6_EEOT_OT0_, symObjAddr: 0x3BF4, symBinAddr: 0x100007564, symSize: 0x44 }
  - { offsetInCU: 0xC60A, offset: 0xC60A, size: 0x8, addend: 0x0, symName: __ZNSt3__122__compressed_pair_elemINS_9allocatorINS_6vectorIiNS1_IiEEEEEELi1ELb1EEC2B8ue170006IS5_vEEOT_, symObjAddr: 0x3C38, symBinAddr: 0x1000075A8, symSize: 0x18 }
  - { offsetInCU: 0xC64A, offset: 0xC64A, size: 0x8, addend: 0x0, symName: __ZNSt3__16vectorINS0_IiNS_9allocatorIiEEEENS1_IS3_EEE18__construct_at_endIPS3_S7_EEvT_T0_m, symObjAddr: 0x3C50, symBinAddr: 0x1000075C0, symSize: 0x8C }
  - { offsetInCU: 0xC6DC, offset: 0xC6DC, size: 0x8, addend: 0x0, symName: __ZNSt3__14pairIPNS_6vectorIiNS_9allocatorIiEEEES5_EC1B8ue170006IS5_S5_LPv0EEEOT_OT0_, symObjAddr: 0x3EE8, symBinAddr: 0x100007858, symSize: 0x3C }
  - { offsetInCU: 0xC738, offset: 0xC738, size: 0x8, addend: 0x0, symName: __ZNSt3__14pairIPNS_6vectorIiNS_9allocatorIiEEEES5_EC2B8ue170006IS5_S5_LPv0EEEOT_OT0_, symObjAddr: 0x3F24, symBinAddr: 0x100007894, symSize: 0x34 }
  - { offsetInCU: 0xC794, offset: 0xC794, size: 0x8, addend: 0x0, symName: __ZNSt3__116allocator_traitsINS_9allocatorINS_6vectorIiNS1_IiEEEEEEE9constructB8ue170006IS4_JRS4_EvEEvRS5_PT_DpOT0_, symObjAddr: 0x3F58, symBinAddr: 0x1000078C8, symSize: 0x34 }
  - { offsetInCU: 0xC7EA, offset: 0xC7EA, size: 0x8, addend: 0x0, symName: __ZNSt3__19allocatorINS_6vectorIiNS0_IiEEEEE9constructB8ue170006IS3_JRS3_EEEvPT_DpOT0_, symObjAddr: 0x3F8C, symBinAddr: 0x1000078FC, symSize: 0x30 }
...
