---
triple:          'arm64-apple-darwin'
binary-path:     '/Users/rogersarinana/Documents/NeetCode/Neet_Code/Stack/validParente'
relocations:
  - { offsetInCU: 0x5C, offset: 0x5C, size: 0x8, addend: 0x0, symName: __ZNSt3__1L19piecewise_constructE, symObjAddr: 0x8422, symBinAddr: 0x10000BA6E, symSize: 0x0 }
  - { offsetInCU: 0x8C31, offset: 0x8C31, size: 0x8, addend: 0x0, symName: __ZNSt3__1neB8ue170006IPcEEbRKNS_11__wrap_iterIT_EES6_, symObjAddr: 0x414, symBinAddr: 0x100003850, symSize: 0x34 }
  - { offsetInCU: 0x8C7F, offset: 0x8C7F, size: 0x8, addend: 0x0, symName: __ZNSt3__1eqB8ue170006IPcEEbRKNS_11__wrap_iterIT_EES6_, symObjAddr: 0x70C, symBinAddr: 0x100003B48, symSize: 0x48 }
  - { offsetInCU: 0x8CC2, offset: 0x8CC2, size: 0x8, addend: 0x0, symName: __ZNSt3__1neB8ue170006ERKNS_16__deque_iteratorIcPcRcPS1_lLl4096EEES6_, symObjAddr: 0xD10, symBinAddr: 0x10000414C, symSize: 0x34 }
  - { offsetInCU: 0x8CFF, offset: 0x8CFF, size: 0x8, addend: 0x0, symName: __ZNSt3__1eqB8ue170006ERKNS_16__deque_iteratorIcPcRcPS1_lLl4096EEES6_, symObjAddr: 0x1060, symBinAddr: 0x10000449C, symSize: 0x30 }
  - { offsetInCU: 0x8D3C, offset: 0x8D3C, size: 0x8, addend: 0x0, symName: __ZNSt3__112__to_addressB8ue170006IcEEPT_S2_, symObjAddr: 0x16F0, symBinAddr: 0x100004B2C, symSize: 0x14 }
  - { offsetInCU: 0x8D71, offset: 0x8D71, size: 0x8, addend: 0x0, symName: __ZNSt3__119__libcpp_deallocateB8ue170006EPvmm, symObjAddr: 0x185C, symBinAddr: 0x100004C98, symSize: 0x30 }
  - { offsetInCU: 0x8DB9, offset: 0x8DB9, size: 0x8, addend: 0x0, symName: __ZNSt3__127__do_deallocate_handle_sizeB8ue170006IJEEEvPvmDpT_, symObjAddr: 0x188C, symBinAddr: 0x100004CC8, symSize: 0x28 }
  - { offsetInCU: 0x8DF7, offset: 0x8DF7, size: 0x8, addend: 0x0, symName: __ZNSt3__124__libcpp_operator_deleteB8ue170006IJPvEEEvDpT_, symObjAddr: 0x18B4, symBinAddr: 0x100004CF0, symSize: 0x24 }
  - { offsetInCU: 0x8E2C, offset: 0x8E2C, size: 0x8, addend: 0x0, symName: __ZNSt3__112__to_addressB8ue170006IPcEEPT_S3_, symObjAddr: 0x1B38, symBinAddr: 0x100004F74, symSize: 0x14 }
  - { offsetInCU: 0x8E61, offset: 0x8E61, size: 0x8, addend: 0x0, symName: __ZNSt3__116__constrain_hashB8ue170006Emm, symObjAddr: 0x2A74, symBinAddr: 0x100005EB0, symSize: 0x98 }
  - { offsetInCU: 0x8E9B, offset: 0x8E9B, size: 0x8, addend: 0x0, symName: __ZNSt3__13maxB8ue170006ImEERKT_S3_S3_, symObjAddr: 0x2DA8, symBinAddr: 0x1000061E4, symSize: 0x2C }
  - { offsetInCU: 0x8EDE, offset: 0x8EDE, size: 0x8, addend: 0x0, symName: __ZNSt3__116__is_hash_power2B8ue170006Em, symObjAddr: 0x2DD4, symBinAddr: 0x100006210, symSize: 0x50 }
  - { offsetInCU: 0x8F5B, offset: 0x8F5B, size: 0x8, addend: 0x0, symName: __ZNSt3__117__libcpp_allocateB8ue170006Emm, symObjAddr: 0x33BC, symBinAddr: 0x1000067F8, symSize: 0x28 }
  - { offsetInCU: 0x8F98, offset: 0x8F98, size: 0x8, addend: 0x0, symName: __ZNSt3__121__libcpp_operator_newB8ue170006IJmEEEPvDpT_, symObjAddr: 0x33FC, symBinAddr: 0x100006838, symSize: 0x24 }
  - { offsetInCU: 0x8FD1, offset: 0x8FD1, size: 0x8, addend: 0x0, symName: __ZNSt3__116__next_hash_pow2B8ue170006Em, symObjAddr: 0x3A70, symBinAddr: 0x100006EAC, symSize: 0x6C }
  - { offsetInCU: 0x9019, offset: 0x9019, size: 0x8, addend: 0x0, symName: __ZNSt3__112__libcpp_clzB8ue170006Em, symObjAddr: 0x3E18, symBinAddr: 0x100007254, symSize: 0x1C }
  - { offsetInCU: 0x9045, offset: 0x9045, size: 0x8, addend: 0x0, symName: __ZNSt3__13maxB8ue170006ImNS_6__lessIvvEEEERKT_S5_S5_T0_, symObjAddr: 0x3E34, symBinAddr: 0x100007270, symSize: 0x54 }
  - { offsetInCU: 0x9117, offset: 0x9117, size: 0x8, addend: 0x0, symName: __ZNSt3__1neB8ue170006ERKNS_21__hash_const_iteratorIPNS_11__hash_nodeINS_17__hash_value_typeIccEEPvEEEES9_, symObjAddr: 0x4838, symBinAddr: 0x100007C74, symSize: 0x34 }
  - { offsetInCU: 0x9154, offset: 0x9154, size: 0x8, addend: 0x0, symName: __ZNSt3__1eqB8ue170006ERKNS_21__hash_const_iteratorIPNS_11__hash_nodeINS_17__hash_value_typeIccEEPvEEEES9_, symObjAddr: 0x4A50, symBinAddr: 0x100007E8C, symSize: 0x30 }
  - { offsetInCU: 0x91C8, offset: 0x91C8, size: 0x8, addend: 0x0, symName: __ZNSt3__116forward_as_tupleB8ue170006IJRKcEEENS_5tupleIJDpOT_EEES6_, symObjAddr: 0x50AC, symBinAddr: 0x1000084E8, symSize: 0x2C }
  - { offsetInCU: 0x9201, offset: 0x9201, size: 0x8, addend: 0x0, symName: __ZNSt3__116forward_as_tupleB8ue170006IJEEENS_5tupleIJDpOT_EEES4_, symObjAddr: 0x50D8, symBinAddr: 0x100008514, symSize: 0x4 }
  - { offsetInCU: 0x9230, offset: 0x9230, size: 0x8, addend: 0x0, symName: __ZNSt3__13getB8ue170006ILm0EJRKcEEERNS_13tuple_elementIXT_ENS_5tupleIJDpT0_EEEE4typeERS7_, symObjAddr: 0x53AC, symBinAddr: 0x1000087E8, symSize: 0x24 }
  - { offsetInCU: 0x9723, offset: 0x9723, size: 0x8, addend: 0x0, symName: __ZNSt3__14swapB8ue170006IPPcEENS_9enable_ifIXaasr21is_move_constructibleIT_EE5valuesr18is_move_assignableIS4_EE5valueEvE4typeERS4_S7_, symObjAddr: 0x6A68, symBinAddr: 0x100009EA4, symSize: 0x3C }
  - { offsetInCU: 0x9774, offset: 0x9774, size: 0x8, addend: 0x0, symName: __ZNSt3__14moveB8ue170006IPPcS2_EET0_T_S4_S3_, symObjAddr: 0x6B4C, symBinAddr: 0x100009F88, symSize: 0x40 }
  - { offsetInCU: 0x97CE, offset: 0x97CE, size: 0x8, addend: 0x0, symName: __ZNSt3__16__moveB8ue170006INS_17_ClassicAlgPolicyEPPcS3_S3_EENS_4pairIT0_T2_EES5_T1_S6_, symObjAddr: 0x6C54, symBinAddr: 0x10000A090, symSize: 0x44 }
  - { offsetInCU: 0x983A, offset: 0x983A, size: 0x8, addend: 0x0, symName: __ZNSt3__123__dispatch_copy_or_moveB8ue170006INS_17_ClassicAlgPolicyENS_11__move_loopIS1_EENS_14__move_trivialEPPcS6_S6_EENS_4pairIT2_T4_EES8_T3_S9_, symObjAddr: 0x6C98, symBinAddr: 0x10000A0D4, symSize: 0x44 }
  - { offsetInCU: 0x98B8, offset: 0x98B8, size: 0x8, addend: 0x0, symName: __ZNSt3__121__unwrap_and_dispatchB8ue170006INS_10__overloadINS_11__move_loopINS_17_ClassicAlgPolicyEEENS_14__move_trivialEEEPPcS8_S8_Li0EEENS_4pairIT0_T2_EESA_T1_SB_, symObjAddr: 0x6CDC, symBinAddr: 0x10000A118, symSize: 0xB4 }
  - { offsetInCU: 0x9946, offset: 0x9946, size: 0x8, addend: 0x0, symName: __ZNSt3__114__unwrap_rangeB8ue170006IPPcS2_EENS_4pairIT0_S4_EET_S6_, symObjAddr: 0x6D90, symBinAddr: 0x10000A1CC, symSize: 0x60 }
  - { offsetInCU: 0x9B0A, offset: 0x9B0A, size: 0x8, addend: 0x0, symName: __ZNSt3__113__unwrap_iterB8ue170006IPPcNS_18__unwrap_iter_implIS2_Lb1EEELi0EEEDTclsrT0_8__unwrapclsr3stdE7declvalIT_EEEES6_, symObjAddr: 0x6E38, symBinAddr: 0x10000A274, symSize: 0x24 }
  - { offsetInCU: 0x9B4E, offset: 0x9B4E, size: 0x8, addend: 0x0, symName: __ZNSt3__19make_pairB8ue170006IPPcS2_EENS_4pairINS_18__unwrap_ref_decayIT_E4typeENS4_IT0_E4typeEEEOS5_OS8_, symObjAddr: 0x6E5C, symBinAddr: 0x10000A298, symSize: 0x38 }
  - { offsetInCU: 0x9B9D, offset: 0x9B9D, size: 0x8, addend: 0x0, symName: __ZNSt3__114__rewrap_rangeB8ue170006IPPcS2_EET_S3_T0_, symObjAddr: 0x6E94, symBinAddr: 0x10000A2D0, symSize: 0x2C }
  - { offsetInCU: 0x9BE9, offset: 0x9BE9, size: 0x8, addend: 0x0, symName: __ZNSt3__113__rewrap_iterB8ue170006IPPcS2_NS_18__unwrap_iter_implIS2_Lb1EEEEET_S5_T0_, symObjAddr: 0x6EC0, symBinAddr: 0x10000A2FC, symSize: 0x3C }
  - { offsetInCU: 0x9C3E, offset: 0x9C3E, size: 0x8, addend: 0x0, symName: __ZNSt3__119__copy_trivial_implB8ue170006IPcS1_EENS_4pairIPT_PT0_EES4_S4_S6_, symObjAddr: 0x6EFC, symBinAddr: 0x10000A338, symSize: 0x80 }
  - { offsetInCU: 0x9CA6, offset: 0x9CA6, size: 0x8, addend: 0x0, symName: __ZNSt3__119__constexpr_memmoveB8ue170006IPcS1_Li0EEEPT_S3_PT0_NS_15__element_countE, symObjAddr: 0x6F7C, symBinAddr: 0x10000A3B8, symSize: 0x64 }
  - { offsetInCU: 0x9D14, offset: 0x9D14, size: 0x8, addend: 0x0, symName: __ZNSt3__19make_pairB8ue170006IRPPcS2_EENS_4pairINS_18__unwrap_ref_decayIT_E4typeENS5_IT0_E4typeEEEOS6_OS9_, symObjAddr: 0x6FE0, symBinAddr: 0x10000A41C, symSize: 0x38 }
  - { offsetInCU: 0x9DB6, offset: 0x9DB6, size: 0x8, addend: 0x0, symName: __ZNSt3__18distanceB8ue170006INS_13move_iteratorIPPcEEEENS_15iterator_traitsIT_E15difference_typeES6_S6_, symObjAddr: 0x7248, symBinAddr: 0x10000A684, symSize: 0x3C }
  - { offsetInCU: 0x9DF9, offset: 0x9DF9, size: 0x8, addend: 0x0, symName: __ZNSt3__110__distanceB8ue170006INS_13move_iteratorIPPcEEEENS_15iterator_traitsIT_E15difference_typeES6_S6_NS_26random_access_iterator_tagE, symObjAddr: 0x744C, symBinAddr: 0x10000A888, symSize: 0x30 }
  - { offsetInCU: 0x9E46, offset: 0x9E46, size: 0x8, addend: 0x0, symName: __ZNSt3__1miB8ue170006IPPcS2_EEDTmicldtfp_4baseEcldtfp0_4baseEERKNS_13move_iteratorIT_EERKNS4_IT0_EE, symObjAddr: 0x747C, symBinAddr: 0x10000A8B8, symSize: 0x48 }
  - { offsetInCU: 0x9E95, offset: 0x9E95, size: 0x8, addend: 0x0, symName: __ZNSt3__113move_backwardB8ue170006IPPcS2_EET0_T_S4_S3_, symObjAddr: 0x75B4, symBinAddr: 0x10000A9F0, symSize: 0x40 }
  - { offsetInCU: 0x9EEF, offset: 0x9EEF, size: 0x8, addend: 0x0, symName: __ZNSt3__115__move_backwardB8ue170006INS_17_ClassicAlgPolicyEPPcS3_S3_EENS_4pairIT0_T2_EES5_T1_S6_, symObjAddr: 0x75F4, symBinAddr: 0x10000AA30, symSize: 0x44 }
  - { offsetInCU: 0x9F5B, offset: 0x9F5B, size: 0x8, addend: 0x0, symName: __ZNSt3__123__dispatch_copy_or_moveB8ue170006INS_17_ClassicAlgPolicyENS_20__move_backward_loopIS1_EENS_23__move_backward_trivialEPPcS6_S6_EENS_4pairIT2_T4_EES8_T3_S9_, symObjAddr: 0x7638, symBinAddr: 0x10000AA74, symSize: 0x44 }
  - { offsetInCU: 0x9FD9, offset: 0x9FD9, size: 0x8, addend: 0x0, symName: __ZNSt3__121__unwrap_and_dispatchB8ue170006INS_10__overloadINS_20__move_backward_loopINS_17_ClassicAlgPolicyEEENS_23__move_backward_trivialEEEPPcS8_S8_Li0EEENS_4pairIT0_T2_EESA_T1_SB_, symObjAddr: 0x767C, symBinAddr: 0x10000AAB8, symSize: 0xB4 }
  - { offsetInCU: 0xA0AD, offset: 0xA0AD, size: 0x8, addend: 0x0, symName: __ZNSt3__128__copy_backward_trivial_implB8ue170006IPcS1_EENS_4pairIPT_PT0_EES4_S4_S6_, symObjAddr: 0x7778, symBinAddr: 0x10000ABB4, symSize: 0x90 }
  - { offsetInCU: 0xA115, offset: 0xA115, size: 0x8, addend: 0x0, symName: __ZNSt3__19make_pairB8ue170006IRPPcS3_EENS_4pairINS_18__unwrap_ref_decayIT_E4typeENS5_IT0_E4typeEEEOS6_OS9_, symObjAddr: 0x7808, symBinAddr: 0x10000AC44, symSize: 0x38 }
  - { offsetInCU: 0xA164, offset: 0xA164, size: 0x8, addend: 0x0, symName: __ZNSt3__119__allocate_at_leastB8ue170006INS_9allocatorIPcEEEENS_19__allocation_resultINS_16allocator_traitsIT_E7pointerEEERS6_m, symObjAddr: 0x79C0, symBinAddr: 0x10000ADFC, symSize: 0x40 }
  - { offsetInCU: 0xA1A7, offset: 0xA1A7, size: 0x8, addend: 0x0, symName: __ZNSt3__118__constexpr_strlenB8ue170006EPKc, symObjAddr: 0x8148, symBinAddr: 0x10000B584, symSize: 0x24 }
  - { offsetInCU: 0xA422, offset: 0xA422, size: 0x8, addend: 0x0, symName: __ZSt28__throw_bad_array_new_lengthB8ue170006v, symObjAddr: 0x3388, symBinAddr: 0x1000067C4, symSize: 0x34 }
  - { offsetInCU: 0xCF6C, offset: 0xCF6C, size: 0x8, addend: 0x0, symName: __Z7isValidNSt3__112basic_stringIcNS_11char_traitsIcEENS_9allocatorIcEEEE, symObjAddr: 0x0, symBinAddr: 0x10000343C, symSize: 0x27C }
  - { offsetInCU: 0xD00D, offset: 0xD00D, size: 0x8, addend: 0x0, symName: __ZNKSt3__112basic_stringIcNS_11char_traitsIcEENS_9allocatorIcEEE4sizeB8ue170006Ev, symObjAddr: 0x27C, symBinAddr: 0x1000036B8, symSize: 0x54 }
  - { offsetInCU: 0xD036, offset: 0xD036, size: 0x8, addend: 0x0, symName: __ZNSt3__14pairIKccEC1B8ue170006IccLPv0EEEOT_OT0_, symObjAddr: 0x2D0, symBinAddr: 0x10000370C, symSize: 0x3C }
  - { offsetInCU: 0xD146, offset: 0xD146, size: 0x8, addend: 0x0, symName: __ZNSt3__113unordered_mapIccNS_4hashIcEENS_8equal_toIcEENS_9allocatorINS_4pairIKccEEEEEC1ESt16initializer_listIS8_E, symObjAddr: 0x30C, symBinAddr: 0x100003748, symSize: 0x3C }
  - { offsetInCU: 0xD1BB, offset: 0xD1BB, size: 0x8, addend: 0x0, symName: __ZNSt3__15stackIcNS_5dequeIcNS_9allocatorIcEEEEEC1B8ue170006Ev, symObjAddr: 0x348, symBinAddr: 0x100003784, symSize: 0x2C }
  - { offsetInCU: 0xD1E3, offset: 0xD1E3, size: 0x8, addend: 0x0, symName: __ZNSt3__112basic_stringIcNS_11char_traitsIcEENS_9allocatorIcEEE5beginB8ue170006Ev, symObjAddr: 0x374, symBinAddr: 0x1000037B0, symSize: 0x4C }
  - { offsetInCU: 0xD207, offset: 0xD207, size: 0x8, addend: 0x0, symName: __ZNSt3__112basic_stringIcNS_11char_traitsIcEENS_9allocatorIcEEE3endB8ue170006Ev, symObjAddr: 0x3C0, symBinAddr: 0x1000037FC, symSize: 0x54 }
  - { offsetInCU: 0xD22B, offset: 0xD22B, size: 0x8, addend: 0x0, symName: __ZNKSt3__111__wrap_iterIPcEdeB8ue170006Ev, symObjAddr: 0x448, symBinAddr: 0x100003884, symSize: 0x18 }
  - { offsetInCU: 0xD24F, offset: 0xD24F, size: 0x8, addend: 0x0, symName: __ZNKSt3__113unordered_mapIccNS_4hashIcEENS_8equal_toIcEENS_9allocatorINS_4pairIKccEEEEE5countB8ue170006ERS7_, symObjAddr: 0x460, symBinAddr: 0x10000389C, symSize: 0x2C }
  - { offsetInCU: 0xD282, offset: 0xD282, size: 0x8, addend: 0x0, symName: __ZNSt3__15stackIcNS_5dequeIcNS_9allocatorIcEEEEE3topB8ue170006Ev, symObjAddr: 0x48C, symBinAddr: 0x1000038C8, symSize: 0x24 }
  - { offsetInCU: 0xD2A6, offset: 0xD2A6, size: 0x8, addend: 0x0, symName: __ZNSt3__113unordered_mapIccNS_4hashIcEENS_8equal_toIcEENS_9allocatorINS_4pairIKccEEEEEixERS7_, symObjAddr: 0x4B0, symBinAddr: 0x1000038EC, symSize: 0x80 }
  - { offsetInCU: 0xD2DB, offset: 0xD2DB, size: 0x8, addend: 0x0, symName: __ZNSt3__15stackIcNS_5dequeIcNS_9allocatorIcEEEEE3popB8ue170006Ev, symObjAddr: 0x530, symBinAddr: 0x10000396C, symSize: 0x24 }
  - { offsetInCU: 0xD2FF, offset: 0xD2FF, size: 0x8, addend: 0x0, symName: __ZNSt3__15stackIcNS_5dequeIcNS_9allocatorIcEEEEE4pushB8ue170006ERKc, symObjAddr: 0x554, symBinAddr: 0x100003990, symSize: 0x2C }
  - { offsetInCU: 0xD332, offset: 0xD332, size: 0x8, addend: 0x0, symName: __ZNSt3__111__wrap_iterIPcEppB8ue170006Ev, symObjAddr: 0x580, symBinAddr: 0x1000039BC, symSize: 0x20 }
  - { offsetInCU: 0xD356, offset: 0xD356, size: 0x8, addend: 0x0, symName: __ZNKSt3__15stackIcNS_5dequeIcNS_9allocatorIcEEEEE4sizeB8ue170006Ev, symObjAddr: 0x5A0, symBinAddr: 0x1000039DC, symSize: 0x24 }
  - { offsetInCU: 0xD37A, offset: 0xD37A, size: 0x8, addend: 0x0, symName: __ZNSt3__15stackIcNS_5dequeIcNS_9allocatorIcEEEEED1Ev, symObjAddr: 0x5C4, symBinAddr: 0x100003A00, symSize: 0x2C }
  - { offsetInCU: 0xD3A4, offset: 0xD3A4, size: 0x8, addend: 0x0, symName: __ZNSt3__113unordered_mapIccNS_4hashIcEENS_8equal_toIcEENS_9allocatorINS_4pairIKccEEEEED1B8ue170006Ev, symObjAddr: 0x5F0, symBinAddr: 0x100003A2C, symSize: 0x2C }
  - { offsetInCU: 0xD3CD, offset: 0xD3CD, size: 0x8, addend: 0x0, symName: _main, symObjAddr: 0x61C, symBinAddr: 0x100003A58, symSize: 0xBC }
  - { offsetInCU: 0xD3F9, offset: 0xD3F9, size: 0x8, addend: 0x0, symName: __ZNSt3__112basic_stringIcNS_11char_traitsIcEENS_9allocatorIcEEEC1B8ue170006ILi0EEEPKc, symObjAddr: 0x6D8, symBinAddr: 0x100003B14, symSize: 0x34 }
  - { offsetInCU: 0xD436, offset: 0xD436, size: 0x8, addend: 0x0, symName: __ZNKSt3__111__wrap_iterIPcE4baseB8ue170006Ev, symObjAddr: 0x754, symBinAddr: 0x100003B90, symSize: 0x18 }
  - { offsetInCU: 0xD45A, offset: 0xD45A, size: 0x8, addend: 0x0, symName: __ZNSt3__15stackIcNS_5dequeIcNS_9allocatorIcEEEEED2Ev, symObjAddr: 0x76C, symBinAddr: 0x100003BA8, symSize: 0x2C }
  - { offsetInCU: 0xD484, offset: 0xD484, size: 0x8, addend: 0x0, symName: __ZNSt3__15dequeIcNS_9allocatorIcEEED1B8ue170006Ev, symObjAddr: 0x798, symBinAddr: 0x100003BD4, symSize: 0x2C }
  - { offsetInCU: 0xD4AC, offset: 0xD4AC, size: 0x8, addend: 0x0, symName: __ZNSt3__15dequeIcNS_9allocatorIcEEED2B8ue170006Ev, symObjAddr: 0x7C4, symBinAddr: 0x100003C00, symSize: 0xA4 }
  - { offsetInCU: 0xD500, offset: 0xD500, size: 0x8, addend: 0x0, symName: __ZNSt3__15dequeIcNS_9allocatorIcEEE5clearEv, symObjAddr: 0x868, symBinAddr: 0x100003CA4, symSize: 0x194 }
  - { offsetInCU: 0xD559, offset: 0xD559, size: 0x8, addend: 0x0, symName: __ZNKSt3__15dequeIcNS_9allocatorIcEEE17__annotate_deleteB8ue170006Ev, symObjAddr: 0x9FC, symBinAddr: 0x100003E38, symSize: 0xE8 }
  - { offsetInCU: 0xD59A, offset: 0xD59A, size: 0x8, addend: 0x0, symName: __ZNSt3__114__split_bufferIPcNS_9allocatorIS1_EEE5beginB8ue170006Ev, symObjAddr: 0xAE4, symBinAddr: 0x100003F20, symSize: 0x18 }
  - { offsetInCU: 0xD5BE, offset: 0xD5BE, size: 0x8, addend: 0x0, symName: __ZNSt3__114__split_bufferIPcNS_9allocatorIS1_EEE3endB8ue170006Ev, symObjAddr: 0xAFC, symBinAddr: 0x100003F38, symSize: 0x18 }
  - { offsetInCU: 0xD5E3, offset: 0xD5E3, size: 0x8, addend: 0x0, symName: __ZNSt3__116allocator_traitsINS_9allocatorIcEEE10deallocateB8ue170006ERS2_Pcm, symObjAddr: 0xB14, symBinAddr: 0x100003F50, symSize: 0x34 }
  - { offsetInCU: 0xD623, offset: 0xD623, size: 0x8, addend: 0x0, symName: __ZNSt3__15dequeIcNS_9allocatorIcEEE7__allocB8ue170006Ev, symObjAddr: 0xB48, symBinAddr: 0x100003F84, symSize: 0x28 }
  - { offsetInCU: 0xD647, offset: 0xD647, size: 0x8, addend: 0x0, symName: __ZNSt3__114__split_bufferIPcNS_9allocatorIS1_EEED1Ev, symObjAddr: 0xB70, symBinAddr: 0x100003FAC, symSize: 0x2C }
  - { offsetInCU: 0xD671, offset: 0xD671, size: 0x8, addend: 0x0, symName: __ZNSt3__15dequeIcNS_9allocatorIcEEE5beginB8ue170006Ev, symObjAddr: 0xB9C, symBinAddr: 0x100003FD8, symSize: 0xB8 }
  - { offsetInCU: 0xD6A4, offset: 0xD6A4, size: 0x8, addend: 0x0, symName: __ZNSt3__15dequeIcNS_9allocatorIcEEE3endB8ue170006Ev, symObjAddr: 0xC54, symBinAddr: 0x100004090, symSize: 0xBC }
  - { offsetInCU: 0xD6E7, offset: 0xD6E7, size: 0x8, addend: 0x0, symName: __ZNSt3__116allocator_traitsINS_9allocatorIcEEE7destroyB8ue170006IcvEEvRS2_PT_, symObjAddr: 0xD50, symBinAddr: 0x10000418C, symSize: 0x2C }
  - { offsetInCU: 0xD722, offset: 0xD722, size: 0x8, addend: 0x0, symName: __ZNKSt3__116__deque_iteratorIcPcRcPS1_lLl4096EEdeB8ue170006Ev, symObjAddr: 0xD7C, symBinAddr: 0x1000041B8, symSize: 0x18 }
  - { offsetInCU: 0xD746, offset: 0xD746, size: 0x8, addend: 0x0, symName: __ZNSt3__116__deque_iteratorIcPcRcPS1_lLl4096EEppB8ue170006Ev, symObjAddr: 0xD94, symBinAddr: 0x1000041D0, symSize: 0x68 }
  - { offsetInCU: 0xD76A, offset: 0xD76A, size: 0x8, addend: 0x0, symName: __ZNSt3__15dequeIcNS_9allocatorIcEEE6__sizeB8ue170006Ev, symObjAddr: 0xDFC, symBinAddr: 0x100004238, symSize: 0x28 }
  - { offsetInCU: 0xD78E, offset: 0xD78E, size: 0x8, addend: 0x0, symName: __ZNKSt3__114__split_bufferIPcNS_9allocatorIS1_EEE4sizeB8ue170006Ev, symObjAddr: 0xE24, symBinAddr: 0x100004260, symSize: 0x28 }
  - { offsetInCU: 0xD7B2, offset: 0xD7B2, size: 0x8, addend: 0x0, symName: __ZNSt3__114__split_bufferIPcNS_9allocatorIS1_EEE5frontB8ue170006Ev, symObjAddr: 0xE4C, symBinAddr: 0x100004288, symSize: 0x18 }
  - { offsetInCU: 0xD7D6, offset: 0xD7D6, size: 0x8, addend: 0x0, symName: __ZNSt3__114__split_bufferIPcNS_9allocatorIS1_EEE9pop_frontB8ue170006Ev, symObjAddr: 0xE64, symBinAddr: 0x1000042A0, symSize: 0x2C }
  - { offsetInCU: 0xD7FA, offset: 0xD7FA, size: 0x8, addend: 0x0, symName: __ZNKSt3__15dequeIcNS_9allocatorIcEEE14__annotate_newB8ue170006Em, symObjAddr: 0xE90, symBinAddr: 0x1000042CC, symSize: 0xB8 }
  - { offsetInCU: 0xD82D, offset: 0xD82D, size: 0x8, addend: 0x0, symName: __ZNKSt3__114__split_bufferIPcNS_9allocatorIS1_EEE5emptyB8ue170006Ev, symObjAddr: 0xF48, symBinAddr: 0x100004384, symSize: 0x28 }
  - { offsetInCU: 0xD851, offset: 0xD851, size: 0x8, addend: 0x0, symName: __ZNSt3__116__deque_iteratorIcPcRcPS1_lLl4096EEC1B8ue170006ES3_S1_, symObjAddr: 0xF70, symBinAddr: 0x1000043AC, symSize: 0x3C }
  - { offsetInCU: 0xD898, offset: 0xD898, size: 0x8, addend: 0x0, symName: __ZNSt3__116__deque_iteratorIcPcRcPS1_lLl4096EEC2B8ue170006ES3_S1_, symObjAddr: 0xFAC, symBinAddr: 0x1000043E8, symSize: 0x2C }
  - { offsetInCU: 0xD8DD, offset: 0xD8DD, size: 0x8, addend: 0x0, symName: __ZNKSt3__15dequeIcNS_9allocatorIcEEE4sizeB8ue170006Ev, symObjAddr: 0xFD8, symBinAddr: 0x100004414, symSize: 0x28 }
  - { offsetInCU: 0xD901, offset: 0xD901, size: 0x8, addend: 0x0, symName: __ZNKSt3__15dequeIcNS_9allocatorIcEEE6__sizeB8ue170006Ev, symObjAddr: 0x1000, symBinAddr: 0x10000443C, symSize: 0x28 }
  - { offsetInCU: 0xD925, offset: 0xD925, size: 0x8, addend: 0x0, symName: __ZNKSt3__117__compressed_pairImNS_9allocatorIcEEE5firstB8ue170006Ev, symObjAddr: 0x1028, symBinAddr: 0x100004464, symSize: 0x24 }
  - { offsetInCU: 0xD949, offset: 0xD949, size: 0x8, addend: 0x0, symName: __ZNKSt3__122__compressed_pair_elemImLi0ELb0EE5__getB8ue170006Ev, symObjAddr: 0x104C, symBinAddr: 0x100004488, symSize: 0x14 }
  - { offsetInCU: 0xD96D, offset: 0xD96D, size: 0x8, addend: 0x0, symName: __ZNSt3__19allocatorIcE7destroyB8ue170006EPc, symObjAddr: 0x1090, symBinAddr: 0x1000044CC, symSize: 0x14 }
  - { offsetInCU: 0xD99F, offset: 0xD99F, size: 0x8, addend: 0x0, symName: __ZNSt3__117__compressed_pairImNS_9allocatorIcEEE5firstB8ue170006Ev, symObjAddr: 0x10A4, symBinAddr: 0x1000044E0, symSize: 0x24 }
  - { offsetInCU: 0xD9C3, offset: 0xD9C3, size: 0x8, addend: 0x0, symName: __ZNSt3__122__compressed_pair_elemImLi0ELb0EE5__getB8ue170006Ev, symObjAddr: 0x10C8, symBinAddr: 0x100004504, symSize: 0x14 }
  - { offsetInCU: 0xD9E7, offset: 0xD9E7, size: 0x8, addend: 0x0, symName: __ZNSt3__114__split_bufferIPcNS_9allocatorIS1_EEE19__destruct_at_beginB8ue170006EPS1_, symObjAddr: 0x10DC, symBinAddr: 0x100004518, symSize: 0x2C }
  - { offsetInCU: 0xDA1A, offset: 0xDA1A, size: 0x8, addend: 0x0, symName: __ZNSt3__114__split_bufferIPcNS_9allocatorIS1_EEE19__destruct_at_beginEPS1_NS_17integral_constantIbLb1EEE, symObjAddr: 0x1108, symBinAddr: 0x100004544, symSize: 0x20 }
  - { offsetInCU: 0xDA57, offset: 0xDA57, size: 0x8, addend: 0x0, symName: __ZNKSt3__15dequeIcNS_9allocatorIcEEE18__annotate_from_toB8ue170006EmmNS3_22__asan_annotation_typeENS3_23__asan_annotation_placeE, symObjAddr: 0x1128, symBinAddr: 0x100004564, symSize: 0x580 }
  - { offsetInCU: 0xDC11, offset: 0xDC11, size: 0x8, addend: 0x0, symName: __ZNKSt3__114__split_bufferIPcNS_9allocatorIS1_EEE5beginB8ue170006Ev, symObjAddr: 0x16A8, symBinAddr: 0x100004AE4, symSize: 0x18 }
  - { offsetInCU: 0xDC35, offset: 0xDC35, size: 0x8, addend: 0x0, symName: __ZNKSt3__15dequeIcNS_9allocatorIcEEE5emptyB8ue170006Ev, symObjAddr: 0x16C0, symBinAddr: 0x100004AFC, symSize: 0x30 }
  - { offsetInCU: 0xDC59, offset: 0xDC59, size: 0x8, addend: 0x0, symName: __ZNKSt3__15dequeIcNS_9allocatorIcEEE44__annotate_double_ended_contiguous_containerB8ue170006EPKvS5_S5_S5_S5_S5_, symObjAddr: 0x1704, symBinAddr: 0x100004B40, symSize: 0x28 }
  - { offsetInCU: 0xDCBF, offset: 0xDCBF, size: 0x8, addend: 0x0, symName: __ZNKSt3__15dequeIcNS_9allocatorIcEEE22__annotate_whole_blockB8ue170006EmNS3_22__asan_annotation_typeE, symObjAddr: 0x172C, symBinAddr: 0x100004B68, symSize: 0xAC }
  - { offsetInCU: 0xDD2E, offset: 0xDD2E, size: 0x8, addend: 0x0, symName: __ZNKSt3__15dequeIcNS_9allocatorIcEEE23__annotate_poison_blockB8ue170006EPKvS5_, symObjAddr: 0x17D8, symBinAddr: 0x100004C14, symSize: 0x44 }
  - { offsetInCU: 0xDD70, offset: 0xDD70, size: 0x8, addend: 0x0, symName: __ZNSt3__19allocatorIcE10deallocateB8ue170006EPcm, symObjAddr: 0x181C, symBinAddr: 0x100004C58, symSize: 0x40 }
  - { offsetInCU: 0xDDB0, offset: 0xDDB0, size: 0x8, addend: 0x0, symName: __ZNSt3__117__compressed_pairImNS_9allocatorIcEEE6secondB8ue170006Ev, symObjAddr: 0x18D8, symBinAddr: 0x100004D14, symSize: 0x24 }
  - { offsetInCU: 0xDDD4, offset: 0xDDD4, size: 0x8, addend: 0x0, symName: __ZNSt3__122__compressed_pair_elemINS_9allocatorIcEELi1ELb1EE5__getB8ue170006Ev, symObjAddr: 0x18FC, symBinAddr: 0x100004D38, symSize: 0x14 }
  - { offsetInCU: 0xDDF8, offset: 0xDDF8, size: 0x8, addend: 0x0, symName: __ZNSt3__114__split_bufferIPcNS_9allocatorIS1_EEED2Ev, symObjAddr: 0x1910, symBinAddr: 0x100004D4C, symSize: 0x8C }
  - { offsetInCU: 0xDE22, offset: 0xDE22, size: 0x8, addend: 0x0, symName: __ZNSt3__114__split_bufferIPcNS_9allocatorIS1_EEE5clearB8ue170006Ev, symObjAddr: 0x199C, symBinAddr: 0x100004DD8, symSize: 0x28 }
  - { offsetInCU: 0xDE47, offset: 0xDE47, size: 0x8, addend: 0x0, symName: __ZNSt3__116allocator_traitsINS_9allocatorIPcEEE10deallocateB8ue170006ERS3_PS2_m, symObjAddr: 0x19C4, symBinAddr: 0x100004E00, symSize: 0x34 }
  - { offsetInCU: 0xDE87, offset: 0xDE87, size: 0x8, addend: 0x0, symName: __ZNSt3__114__split_bufferIPcNS_9allocatorIS1_EEE7__allocB8ue170006Ev, symObjAddr: 0x19F8, symBinAddr: 0x100004E34, symSize: 0x28 }
  - { offsetInCU: 0xDEAB, offset: 0xDEAB, size: 0x8, addend: 0x0, symName: __ZNKSt3__114__split_bufferIPcNS_9allocatorIS1_EEE8capacityB8ue170006Ev, symObjAddr: 0x1A20, symBinAddr: 0x100004E5C, symSize: 0x40 }
  - { offsetInCU: 0xDECF, offset: 0xDECF, size: 0x8, addend: 0x0, symName: __ZNSt3__114__split_bufferIPcNS_9allocatorIS1_EEE17__destruct_at_endB8ue170006EPS1_, symObjAddr: 0x1A60, symBinAddr: 0x100004E9C, symSize: 0x2C }
  - { offsetInCU: 0xDF01, offset: 0xDF01, size: 0x8, addend: 0x0, symName: __ZNSt3__114__split_bufferIPcNS_9allocatorIS1_EEE17__destruct_at_endB8ue170006EPS1_NS_17integral_constantIbLb0EEE, symObjAddr: 0x1A8C, symBinAddr: 0x100004EC8, symSize: 0x80 }
  - { offsetInCU: 0xDF40, offset: 0xDF40, size: 0x8, addend: 0x0, symName: __ZNSt3__116allocator_traitsINS_9allocatorIPcEEE7destroyB8ue170006IS2_vEEvRS3_PT_, symObjAddr: 0x1B0C, symBinAddr: 0x100004F48, symSize: 0x2C }
  - { offsetInCU: 0xDF7B, offset: 0xDF7B, size: 0x8, addend: 0x0, symName: __ZNSt3__19allocatorIPcE7destroyB8ue170006EPS1_, symObjAddr: 0x1B4C, symBinAddr: 0x100004F88, symSize: 0x14 }
  - { offsetInCU: 0xDFAD, offset: 0xDFAD, size: 0x8, addend: 0x0, symName: __ZNSt3__19allocatorIPcE10deallocateB8ue170006EPS1_m, symObjAddr: 0x1B60, symBinAddr: 0x100004F9C, symSize: 0x40 }
  - { offsetInCU: 0xDFED, offset: 0xDFED, size: 0x8, addend: 0x0, symName: __ZNSt3__117__compressed_pairIPPcNS_9allocatorIS1_EEE6secondB8ue170006Ev, symObjAddr: 0x1BA0, symBinAddr: 0x100004FDC, symSize: 0x24 }
  - { offsetInCU: 0xE011, offset: 0xE011, size: 0x8, addend: 0x0, symName: __ZNSt3__122__compressed_pair_elemINS_9allocatorIPcEELi1ELb1EE5__getB8ue170006Ev, symObjAddr: 0x1BC4, symBinAddr: 0x100005000, symSize: 0x14 }
  - { offsetInCU: 0xE035, offset: 0xE035, size: 0x8, addend: 0x0, symName: __ZNKSt3__114__split_bufferIPcNS_9allocatorIS1_EEE9__end_capB8ue170006Ev, symObjAddr: 0x1BD8, symBinAddr: 0x100005014, symSize: 0x28 }
  - { offsetInCU: 0xE059, offset: 0xE059, size: 0x8, addend: 0x0, symName: __ZNKSt3__117__compressed_pairIPPcNS_9allocatorIS1_EEE5firstB8ue170006Ev, symObjAddr: 0x1C00, symBinAddr: 0x10000503C, symSize: 0x24 }
  - { offsetInCU: 0xE07D, offset: 0xE07D, size: 0x8, addend: 0x0, symName: __ZNKSt3__122__compressed_pair_elemIPPcLi0ELb0EE5__getB8ue170006Ev, symObjAddr: 0x1C24, symBinAddr: 0x100005060, symSize: 0x14 }
  - { offsetInCU: 0xE0A1, offset: 0xE0A1, size: 0x8, addend: 0x0, symName: __ZNKSt3__112basic_stringIcNS_11char_traitsIcEENS_9allocatorIcEEE9__is_longB8ue170006Ev, symObjAddr: 0x1C38, symBinAddr: 0x100005074, symSize: 0x38 }
  - { offsetInCU: 0xE0C5, offset: 0xE0C5, size: 0x8, addend: 0x0, symName: __ZNKSt3__112basic_stringIcNS_11char_traitsIcEENS_9allocatorIcEEE15__get_long_sizeB8ue170006Ev, symObjAddr: 0x1C70, symBinAddr: 0x1000050AC, symSize: 0x28 }
  - { offsetInCU: 0xE0E9, offset: 0xE0E9, size: 0x8, addend: 0x0, symName: __ZNKSt3__112basic_stringIcNS_11char_traitsIcEENS_9allocatorIcEEE16__get_short_sizeB8ue170006Ev, symObjAddr: 0x1C98, symBinAddr: 0x1000050D4, symSize: 0x34 }
  - { offsetInCU: 0xE10D, offset: 0xE10D, size: 0x8, addend: 0x0, symName: __ZNKSt3__117__compressed_pairINS_12basic_stringIcNS_11char_traitsIcEENS_9allocatorIcEEE5__repES5_E5firstB8ue170006Ev, symObjAddr: 0x1CCC, symBinAddr: 0x100005108, symSize: 0x24 }
  - { offsetInCU: 0xE131, offset: 0xE131, size: 0x8, addend: 0x0, symName: __ZNKSt3__122__compressed_pair_elemINS_12basic_stringIcNS_11char_traitsIcEENS_9allocatorIcEEE5__repELi0ELb0EE5__getB8ue170006Ev, symObjAddr: 0x1CF0, symBinAddr: 0x10000512C, symSize: 0x14 }
  - { offsetInCU: 0xE156, offset: 0xE156, size: 0x8, addend: 0x0, symName: __ZNSt3__14pairIKccEC2B8ue170006IccLPv0EEEOT_OT0_, symObjAddr: 0x1D04, symBinAddr: 0x100005140, symSize: 0x34 }
  - { offsetInCU: 0xE1B1, offset: 0xE1B1, size: 0x8, addend: 0x0, symName: __ZNSt3__113unordered_mapIccNS_4hashIcEENS_8equal_toIcEENS_9allocatorINS_4pairIKccEEEEEC2ESt16initializer_listIS8_E, symObjAddr: 0x1D38, symBinAddr: 0x100005174, symSize: 0x8C }
  - { offsetInCU: 0xE1EA, offset: 0xE1EA, size: 0x8, addend: 0x0, symName: __ZNSt3__112__hash_tableINS_17__hash_value_typeIccEENS_22__unordered_map_hasherIcS2_NS_4hashIcEENS_8equal_toIcEELb1EEENS_21__unordered_map_equalIcS2_S7_S5_Lb1EEENS_9allocatorIS2_EEEC1Ev, symObjAddr: 0x1DC4, symBinAddr: 0x100005200, symSize: 0x2C }
  - { offsetInCU: 0xE214, offset: 0xE214, size: 0x8, addend: 0x0, symName: __ZNSt3__113unordered_mapIccNS_4hashIcEENS_8equal_toIcEENS_9allocatorINS_4pairIKccEEEEE6insertIPKS8_EEvT_SE_, symObjAddr: 0x1DF0, symBinAddr: 0x10000522C, symSize: 0x70 }
  - { offsetInCU: 0xE261, offset: 0xE261, size: 0x8, addend: 0x0, symName: __ZNKSt16initializer_listINSt3__14pairIKccEEE5beginB8ue170006Ev, symObjAddr: 0x1E60, symBinAddr: 0x10000529C, symSize: 0x18 }
  - { offsetInCU: 0xE285, offset: 0xE285, size: 0x8, addend: 0x0, symName: __ZNKSt16initializer_listINSt3__14pairIKccEEE3endB8ue170006Ev, symObjAddr: 0x1E78, symBinAddr: 0x1000052B4, symSize: 0x20 }
  - { offsetInCU: 0xE2A9, offset: 0xE2A9, size: 0x8, addend: 0x0, symName: __ZNSt3__112__hash_tableINS_17__hash_value_typeIccEENS_22__unordered_map_hasherIcS2_NS_4hashIcEENS_8equal_toIcEELb1EEENS_21__unordered_map_equalIcS2_S7_S5_Lb1EEENS_9allocatorIS2_EEED1Ev, symObjAddr: 0x1E98, symBinAddr: 0x1000052D4, symSize: 0x2C }
  - { offsetInCU: 0xE2D3, offset: 0xE2D3, size: 0x8, addend: 0x0, symName: __ZNSt3__112__hash_tableINS_17__hash_value_typeIccEENS_22__unordered_map_hasherIcS2_NS_4hashIcEENS_8equal_toIcEELb1EEENS_21__unordered_map_equalIcS2_S7_S5_Lb1EEENS_9allocatorIS2_EEEC2Ev, symObjAddr: 0x1EC4, symBinAddr: 0x100005300, symSize: 0x7C }
  - { offsetInCU: 0xE2FD, offset: 0xE2FD, size: 0x8, addend: 0x0, symName: __ZNSt3__110unique_ptrIA_PNS_16__hash_node_baseIPNS_11__hash_nodeINS_17__hash_value_typeIccEEPvEEEENS_25__bucket_list_deallocatorINS_9allocatorIS9_EEEEEC1B8ue170006ILb1EvEEv, symObjAddr: 0x1F40, symBinAddr: 0x10000537C, symSize: 0x2C }
  - { offsetInCU: 0xE330, offset: 0xE330, size: 0x8, addend: 0x0, symName: __ZNSt3__117__compressed_pairINS_16__hash_node_baseIPNS_11__hash_nodeINS_17__hash_value_typeIccEEPvEEEENS_9allocatorIS6_EEEC1B8ue170006ILb1EvEEv, symObjAddr: 0x1F6C, symBinAddr: 0x1000053A8, symSize: 0x2C }
  - { offsetInCU: 0xE36D, offset: 0xE36D, size: 0x8, addend: 0x0, symName: __ZNSt3__117__compressed_pairImNS_22__unordered_map_hasherIcNS_17__hash_value_typeIccEENS_4hashIcEENS_8equal_toIcEELb1EEEEC1B8ue170006IiNS_18__default_init_tagEEEOT_OT0_, symObjAddr: 0x1F98, symBinAddr: 0x1000053D4, symSize: 0x3C }
  - { offsetInCU: 0xE3C8, offset: 0xE3C8, size: 0x8, addend: 0x0, symName: __ZNSt3__117__compressed_pairIfNS_21__unordered_map_equalIcNS_17__hash_value_typeIccEENS_8equal_toIcEENS_4hashIcEELb1EEEEC1B8ue170006IfNS_18__default_init_tagEEEOT_OT0_, symObjAddr: 0x1FD4, symBinAddr: 0x100005410, symSize: 0x3C }
  - { offsetInCU: 0xE41E, offset: 0xE41E, size: 0x8, addend: 0x0, symName: __ZNSt3__110unique_ptrIA_PNS_16__hash_node_baseIPNS_11__hash_nodeINS_17__hash_value_typeIccEEPvEEEENS_25__bucket_list_deallocatorINS_9allocatorIS9_EEEEEC2B8ue170006ILb1EvEEv, symObjAddr: 0x2010, symBinAddr: 0x10000544C, symSize: 0x3C }
  - { offsetInCU: 0xE456, offset: 0xE456, size: 0x8, addend: 0x0, symName: __ZNSt3__117__compressed_pairIPPNS_16__hash_node_baseIPNS_11__hash_nodeINS_17__hash_value_typeIccEEPvEEEENS_25__bucket_list_deallocatorINS_9allocatorIS9_EEEEEC1B8ue170006INS_16__value_init_tagESH_EEOT_OT0_, symObjAddr: 0x204C, symBinAddr: 0x100005488, symSize: 0x3C }
  - { offsetInCU: 0xE4AC, offset: 0xE4AC, size: 0x8, addend: 0x0, symName: __ZNSt3__117__compressed_pairIPPNS_16__hash_node_baseIPNS_11__hash_nodeINS_17__hash_value_typeIccEEPvEEEENS_25__bucket_list_deallocatorINS_9allocatorIS9_EEEEEC2B8ue170006INS_16__value_init_tagESH_EEOT_OT0_, symObjAddr: 0x2088, symBinAddr: 0x1000054C4, symSize: 0x40 }
  - { offsetInCU: 0xE503, offset: 0xE503, size: 0x8, addend: 0x0, symName: __ZNSt3__122__compressed_pair_elemIPPNS_16__hash_node_baseIPNS_11__hash_nodeINS_17__hash_value_typeIccEEPvEEEELi0ELb0EEC2B8ue170006ENS_16__value_init_tagE, symObjAddr: 0x20C8, symBinAddr: 0x100005504, symSize: 0x18 }
  - { offsetInCU: 0xE534, offset: 0xE534, size: 0x8, addend: 0x0, symName: __ZNSt3__122__compressed_pair_elemINS_25__bucket_list_deallocatorINS_9allocatorIPNS_16__hash_node_baseIPNS_11__hash_nodeINS_17__hash_value_typeIccEEPvEEEEEEEELi1ELb0EEC2B8ue170006ENS_16__value_init_tagE, symObjAddr: 0x20E0, symBinAddr: 0x10000551C, symSize: 0x2C }
  - { offsetInCU: 0xE566, offset: 0xE566, size: 0x8, addend: 0x0, symName: __ZNSt3__125__bucket_list_deallocatorINS_9allocatorIPNS_16__hash_node_baseIPNS_11__hash_nodeINS_17__hash_value_typeIccEEPvEEEEEEEC1B8ue170006Ev, symObjAddr: 0x210C, symBinAddr: 0x100005548, symSize: 0x2C }
  - { offsetInCU: 0xE58E, offset: 0xE58E, size: 0x8, addend: 0x0, symName: __ZNSt3__125__bucket_list_deallocatorINS_9allocatorIPNS_16__hash_node_baseIPNS_11__hash_nodeINS_17__hash_value_typeIccEEPvEEEEEEEC2B8ue170006Ev, symObjAddr: 0x2138, symBinAddr: 0x100005574, symSize: 0x40 }
  - { offsetInCU: 0xE5B6, offset: 0xE5B6, size: 0x8, addend: 0x0, symName: __ZNSt3__117__compressed_pairImNS_9allocatorIPNS_16__hash_node_baseIPNS_11__hash_nodeINS_17__hash_value_typeIccEEPvEEEEEEEC1B8ue170006IiNS_18__default_init_tagEEEOT_OT0_, symObjAddr: 0x2178, symBinAddr: 0x1000055B4, symSize: 0x3C }
  - { offsetInCU: 0xE60C, offset: 0xE60C, size: 0x8, addend: 0x0, symName: __ZNSt3__117__compressed_pairImNS_9allocatorIPNS_16__hash_node_baseIPNS_11__hash_nodeINS_17__hash_value_typeIccEEPvEEEEEEEC2B8ue170006IiNS_18__default_init_tagEEEOT_OT0_, symObjAddr: 0x21B4, symBinAddr: 0x1000055F0, symSize: 0x40 }
  - { offsetInCU: 0xE663, offset: 0xE663, size: 0x8, addend: 0x0, symName: __ZNSt3__122__compressed_pair_elemImLi0ELb0EEC2B8ue170006IivEEOT_, symObjAddr: 0x21F4, symBinAddr: 0x100005630, symSize: 0x24 }
  - { offsetInCU: 0xE6A2, offset: 0xE6A2, size: 0x8, addend: 0x0, symName: __ZNSt3__122__compressed_pair_elemINS_9allocatorIPNS_16__hash_node_baseIPNS_11__hash_nodeINS_17__hash_value_typeIccEEPvEEEEEELi1ELb1EEC2B8ue170006ENS_18__default_init_tagE, symObjAddr: 0x2218, symBinAddr: 0x100005654, symSize: 0x2C }
  - { offsetInCU: 0xE6D4, offset: 0xE6D4, size: 0x8, addend: 0x0, symName: __ZNSt3__19allocatorIPNS_16__hash_node_baseIPNS_11__hash_nodeINS_17__hash_value_typeIccEEPvEEEEEC2B8ue170006Ev, symObjAddr: 0x2244, symBinAddr: 0x100005680, symSize: 0x2C }
  - { offsetInCU: 0xE6FD, offset: 0xE6FD, size: 0x8, addend: 0x0, symName: __ZNSt3__116__non_trivial_ifILb1ENS_9allocatorIPNS_16__hash_node_baseIPNS_11__hash_nodeINS_17__hash_value_typeIccEEPvEEEEEEEC2B8ue170006Ev, symObjAddr: 0x2270, symBinAddr: 0x1000056AC, symSize: 0x14 }
  - { offsetInCU: 0xE724, offset: 0xE724, size: 0x8, addend: 0x0, symName: __ZNSt3__117__compressed_pairINS_16__hash_node_baseIPNS_11__hash_nodeINS_17__hash_value_typeIccEEPvEEEENS_9allocatorIS6_EEEC2B8ue170006ILb1EvEEv, symObjAddr: 0x2284, symBinAddr: 0x1000056C0, symSize: 0x34 }
  - { offsetInCU: 0xE757, offset: 0xE757, size: 0x8, addend: 0x0, symName: __ZNSt3__122__compressed_pair_elemINS_16__hash_node_baseIPNS_11__hash_nodeINS_17__hash_value_typeIccEEPvEEEELi0ELb0EEC2B8ue170006ENS_16__value_init_tagE, symObjAddr: 0x22B8, symBinAddr: 0x1000056F4, symSize: 0x2C }
  - { offsetInCU: 0xE789, offset: 0xE789, size: 0x8, addend: 0x0, symName: __ZNSt3__122__compressed_pair_elemINS_9allocatorINS_11__hash_nodeINS_17__hash_value_typeIccEEPvEEEELi1ELb1EEC2B8ue170006ENS_16__value_init_tagE, symObjAddr: 0x22E4, symBinAddr: 0x100005720, symSize: 0x2C }
  - { offsetInCU: 0xE7BB, offset: 0xE7BB, size: 0x8, addend: 0x0, symName: __ZNSt3__116__hash_node_baseIPNS_11__hash_nodeINS_17__hash_value_typeIccEEPvEEEC1B8ue170006Ev, symObjAddr: 0x2310, symBinAddr: 0x10000574C, symSize: 0x2C }
  - { offsetInCU: 0xE7E4, offset: 0xE7E4, size: 0x8, addend: 0x0, symName: __ZNSt3__116__hash_node_baseIPNS_11__hash_nodeINS_17__hash_value_typeIccEEPvEEEC2B8ue170006Ev, symObjAddr: 0x233C, symBinAddr: 0x100005778, symSize: 0x18 }
  - { offsetInCU: 0xE80B, offset: 0xE80B, size: 0x8, addend: 0x0, symName: __ZNSt3__19allocatorINS_11__hash_nodeINS_17__hash_value_typeIccEEPvEEEC2B8ue170006Ev, symObjAddr: 0x2354, symBinAddr: 0x100005790, symSize: 0x2C }
  - { offsetInCU: 0xE834, offset: 0xE834, size: 0x8, addend: 0x0, symName: __ZNSt3__116__non_trivial_ifILb1ENS_9allocatorINS_11__hash_nodeINS_17__hash_value_typeIccEEPvEEEEEC2B8ue170006Ev, symObjAddr: 0x2380, symBinAddr: 0x1000057BC, symSize: 0x14 }
  - { offsetInCU: 0xE85B, offset: 0xE85B, size: 0x8, addend: 0x0, symName: __ZNSt3__117__compressed_pairImNS_22__unordered_map_hasherIcNS_17__hash_value_typeIccEENS_4hashIcEENS_8equal_toIcEELb1EEEEC2B8ue170006IiNS_18__default_init_tagEEEOT_OT0_, symObjAddr: 0x2394, symBinAddr: 0x1000057D0, symSize: 0x40 }
  - { offsetInCU: 0xE8B1, offset: 0xE8B1, size: 0x8, addend: 0x0, symName: __ZNSt3__122__compressed_pair_elemINS_22__unordered_map_hasherIcNS_17__hash_value_typeIccEENS_4hashIcEENS_8equal_toIcEELb1EEELi1ELb1EEC2B8ue170006ENS_18__default_init_tagE, symObjAddr: 0x23D4, symBinAddr: 0x100005810, symSize: 0x2C }
  - { offsetInCU: 0xE8E4, offset: 0xE8E4, size: 0x8, addend: 0x0, symName: __ZNSt3__122__unordered_map_hasherIcNS_17__hash_value_typeIccEENS_4hashIcEENS_8equal_toIcEELb1EEC2B8ue170006Ev, symObjAddr: 0x2400, symBinAddr: 0x10000583C, symSize: 0x14 }
  - { offsetInCU: 0xE90B, offset: 0xE90B, size: 0x8, addend: 0x0, symName: __ZNSt3__117__compressed_pairIfNS_21__unordered_map_equalIcNS_17__hash_value_typeIccEENS_8equal_toIcEENS_4hashIcEELb1EEEEC2B8ue170006IfNS_18__default_init_tagEEEOT_OT0_, symObjAddr: 0x2414, symBinAddr: 0x100005850, symSize: 0x40 }
  - { offsetInCU: 0xE962, offset: 0xE962, size: 0x8, addend: 0x0, symName: __ZNSt3__122__compressed_pair_elemIfLi0ELb0EEC2B8ue170006IfvEEOT_, symObjAddr: 0x2454, symBinAddr: 0x100005890, symSize: 0x24 }
  - { offsetInCU: 0xE9A1, offset: 0xE9A1, size: 0x8, addend: 0x0, symName: __ZNSt3__122__compressed_pair_elemINS_21__unordered_map_equalIcNS_17__hash_value_typeIccEENS_8equal_toIcEENS_4hashIcEELb1EEELi1ELb1EEC2B8ue170006ENS_18__default_init_tagE, symObjAddr: 0x2478, symBinAddr: 0x1000058B4, symSize: 0x2C }
  - { offsetInCU: 0xE9D4, offset: 0xE9D4, size: 0x8, addend: 0x0, symName: __ZNSt3__121__unordered_map_equalIcNS_17__hash_value_typeIccEENS_8equal_toIcEENS_4hashIcEELb1EEC2B8ue170006Ev, symObjAddr: 0x24A4, symBinAddr: 0x1000058E0, symSize: 0x14 }
  - { offsetInCU: 0xE9FB, offset: 0xE9FB, size: 0x8, addend: 0x0, symName: __ZNSt3__112__hash_tableINS_17__hash_value_typeIccEENS_22__unordered_map_hasherIcS2_NS_4hashIcEENS_8equal_toIcEELb1EEENS_21__unordered_map_equalIcS2_S7_S5_Lb1EEENS_9allocatorIS2_EEE15__insert_uniqueB8ue170006ERKNS_4pairIKccEE, symObjAddr: 0x24B8, symBinAddr: 0x1000058F4, symSize: 0x50 }
  - { offsetInCU: 0xEA2E, offset: 0xEA2E, size: 0x8, addend: 0x0, symName: __ZNSt3__112__hash_tableINS_17__hash_value_typeIccEENS_22__unordered_map_hasherIcS2_NS_4hashIcEENS_8equal_toIcEELb1EEENS_21__unordered_map_equalIcS2_S7_S5_Lb1EEENS_9allocatorIS2_EEE25__emplace_unique_key_argsIcJRKNS_4pairIKccEEEEENSF_INS_15__hash_iteratorIPNS_11__hash_nodeIS2_PvEEEEbEERKT_DpOT0_, symObjAddr: 0x2508, symBinAddr: 0x100005944, symSize: 0x4D8 }
  - { offsetInCU: 0xEB0C, offset: 0xEB0C, size: 0x8, addend: 0x0, symName: __ZNSt3__122__hash_key_value_typesINS_17__hash_value_typeIccEEE9__get_keyB8ue170006ERKNS_4pairIKccEE, symObjAddr: 0x29E0, symBinAddr: 0x100005E1C, symSize: 0x14 }
  - { offsetInCU: 0xEB2E, offset: 0xEB2E, size: 0x8, addend: 0x0, symName: __ZNSt3__112__hash_tableINS_17__hash_value_typeIccEENS_22__unordered_map_hasherIcS2_NS_4hashIcEENS_8equal_toIcEELb1EEENS_21__unordered_map_equalIcS2_S7_S5_Lb1EEENS_9allocatorIS2_EEE13hash_functionB8ue170006Ev, symObjAddr: 0x29F4, symBinAddr: 0x100005E30, symSize: 0x28 }
  - { offsetInCU: 0xEB52, offset: 0xEB52, size: 0x8, addend: 0x0, symName: __ZNKSt3__122__unordered_map_hasherIcNS_17__hash_value_typeIccEENS_4hashIcEENS_8equal_toIcEELb1EEclB8ue170006ERKc, symObjAddr: 0x2A1C, symBinAddr: 0x100005E58, symSize: 0x30 }
  - { offsetInCU: 0xEB85, offset: 0xEB85, size: 0x8, addend: 0x0, symName: __ZNKSt3__112__hash_tableINS_17__hash_value_typeIccEENS_22__unordered_map_hasherIcS2_NS_4hashIcEENS_8equal_toIcEELb1EEENS_21__unordered_map_equalIcS2_S7_S5_Lb1EEENS_9allocatorIS2_EEE12bucket_countB8ue170006Ev, symObjAddr: 0x2A4C, symBinAddr: 0x100005E88, symSize: 0x28 }
  - { offsetInCU: 0xEBA9, offset: 0xEBA9, size: 0x8, addend: 0x0, symName: __ZNKSt3__110unique_ptrIA_PNS_16__hash_node_baseIPNS_11__hash_nodeINS_17__hash_value_typeIccEEPvEEEENS_25__bucket_list_deallocatorINS_9allocatorIS9_EEEEEixB8ue170006Em, symObjAddr: 0x2B0C, symBinAddr: 0x100005F48, symSize: 0x34 }
  - { offsetInCU: 0xEBDC, offset: 0xEBDC, size: 0x8, addend: 0x0, symName: __ZNKSt3__116__hash_node_baseIPNS_11__hash_nodeINS_17__hash_value_typeIccEEPvEEE6__hashB8ue170006Ev, symObjAddr: 0x2B40, symBinAddr: 0x100005F7C, symSize: 0x18 }
  - { offsetInCU: 0xEC00, offset: 0xEC00, size: 0x8, addend: 0x0, symName: __ZNSt3__112__hash_tableINS_17__hash_value_typeIccEENS_22__unordered_map_hasherIcS2_NS_4hashIcEENS_8equal_toIcEELb1EEENS_21__unordered_map_equalIcS2_S7_S5_Lb1EEENS_9allocatorIS2_EEE6key_eqB8ue170006Ev, symObjAddr: 0x2B58, symBinAddr: 0x100005F94, symSize: 0x28 }
  - { offsetInCU: 0xEC24, offset: 0xEC24, size: 0x8, addend: 0x0, symName: __ZNKSt3__121__unordered_map_equalIcNS_17__hash_value_typeIccEENS_8equal_toIcEENS_4hashIcEELb1EEclB8ue170006ERKS2_RKc, symObjAddr: 0x2B80, symBinAddr: 0x100005FBC, symSize: 0x48 }
  - { offsetInCU: 0xEC66, offset: 0xEC66, size: 0x8, addend: 0x0, symName: __ZNSt3__116__hash_node_baseIPNS_11__hash_nodeINS_17__hash_value_typeIccEEPvEEE8__upcastB8ue170006Ev, symObjAddr: 0x2BC8, symBinAddr: 0x100006004, symSize: 0x24 }
  - { offsetInCU: 0xEC8A, offset: 0xEC8A, size: 0x8, addend: 0x0, symName: __ZNSt3__112__hash_tableINS_17__hash_value_typeIccEENS_22__unordered_map_hasherIcS2_NS_4hashIcEENS_8equal_toIcEELb1EEENS_21__unordered_map_equalIcS2_S7_S5_Lb1EEENS_9allocatorIS2_EEE21__construct_node_hashIRKNS_4pairIKccEEJEEENS_10unique_ptrINS_11__hash_nodeIS2_PvEENS_22__hash_node_destructorINSB_ISN_EEEEEEmOT_DpOT0_, symObjAddr: 0x2BEC, symBinAddr: 0x100006028, symSize: 0x140 }
  - { offsetInCU: 0xECFB, offset: 0xECFB, size: 0x8, addend: 0x0, symName: __ZNSt3__112__hash_tableINS_17__hash_value_typeIccEENS_22__unordered_map_hasherIcS2_NS_4hashIcEENS_8equal_toIcEELb1EEENS_21__unordered_map_equalIcS2_S7_S5_Lb1EEENS_9allocatorIS2_EEE4sizeB8ue170006Ev, symObjAddr: 0x2D2C, symBinAddr: 0x100006168, symSize: 0x28 }
  - { offsetInCU: 0xED1F, offset: 0xED1F, size: 0x8, addend: 0x0, symName: __ZNSt3__112__hash_tableINS_17__hash_value_typeIccEENS_22__unordered_map_hasherIcS2_NS_4hashIcEENS_8equal_toIcEELb1EEENS_21__unordered_map_equalIcS2_S7_S5_Lb1EEENS_9allocatorIS2_EEE15max_load_factorB8ue170006Ev, symObjAddr: 0x2D54, symBinAddr: 0x100006190, symSize: 0x28 }
  - { offsetInCU: 0xED43, offset: 0xED43, size: 0x8, addend: 0x0, symName: __ZNSt3__112__hash_tableINS_17__hash_value_typeIccEENS_22__unordered_map_hasherIcS2_NS_4hashIcEENS_8equal_toIcEELb1EEENS_21__unordered_map_equalIcS2_S7_S5_Lb1EEENS_9allocatorIS2_EEE15__rehash_uniqueB8ue170006Em, symObjAddr: 0x2D7C, symBinAddr: 0x1000061B8, symSize: 0x2C }
  - { offsetInCU: 0xED76, offset: 0xED76, size: 0x8, addend: 0x0, symName: __Z4ceilB8ue170006f, symObjAddr: 0x2E24, symBinAddr: 0x100006260, symSize: 0x18 }
  - { offsetInCU: 0xEDA4, offset: 0xEDA4, size: 0x8, addend: 0x0, symName: __ZNSt3__117__compressed_pairINS_16__hash_node_baseIPNS_11__hash_nodeINS_17__hash_value_typeIccEEPvEEEENS_9allocatorIS6_EEE5firstB8ue170006Ev, symObjAddr: 0x2E3C, symBinAddr: 0x100006278, symSize: 0x24 }
  - { offsetInCU: 0xEDC8, offset: 0xEDC8, size: 0x8, addend: 0x0, symName: __ZNSt3__116__hash_node_baseIPNS_11__hash_nodeINS_17__hash_value_typeIccEEPvEEE5__ptrB8ue170006Ev, symObjAddr: 0x2E60, symBinAddr: 0x10000629C, symSize: 0x24 }
  - { offsetInCU: 0xEDEC, offset: 0xEDEC, size: 0x8, addend: 0x0, symName: __ZNKSt3__110unique_ptrINS_11__hash_nodeINS_17__hash_value_typeIccEEPvEENS_22__hash_node_destructorINS_9allocatorIS5_EEEEEptB8ue170006Ev, symObjAddr: 0x2E84, symBinAddr: 0x1000062C0, symSize: 0x28 }
  - { offsetInCU: 0xEE10, offset: 0xEE10, size: 0x8, addend: 0x0, symName: __ZNKSt3__110unique_ptrINS_11__hash_nodeINS_17__hash_value_typeIccEEPvEENS_22__hash_node_destructorINS_9allocatorIS5_EEEEE3getB8ue170006Ev, symObjAddr: 0x2EAC, symBinAddr: 0x1000062E8, symSize: 0x28 }
  - { offsetInCU: 0xEE34, offset: 0xEE34, size: 0x8, addend: 0x0, symName: __ZNSt3__110unique_ptrINS_11__hash_nodeINS_17__hash_value_typeIccEEPvEENS_22__hash_node_destructorINS_9allocatorIS5_EEEEE7releaseB8ue170006Ev, symObjAddr: 0x2ED4, symBinAddr: 0x100006310, symSize: 0x44 }
  - { offsetInCU: 0xEE67, offset: 0xEE67, size: 0x8, addend: 0x0, symName: __ZNSt3__110unique_ptrINS_11__hash_nodeINS_17__hash_value_typeIccEEPvEENS_22__hash_node_destructorINS_9allocatorIS5_EEEEED1B8ue170006Ev, symObjAddr: 0x2F18, symBinAddr: 0x100006354, symSize: 0x2C }
  - { offsetInCU: 0xEE8F, offset: 0xEE8F, size: 0x8, addend: 0x0, symName: __ZNSt3__115__hash_iteratorIPNS_11__hash_nodeINS_17__hash_value_typeIccEEPvEEEC1B8ue170006EPNS_16__hash_node_baseIS6_EE, symObjAddr: 0x2F44, symBinAddr: 0x100006380, symSize: 0x34 }
  - { offsetInCU: 0xEED0, offset: 0xEED0, size: 0x8, addend: 0x0, symName: __ZNSt3__14pairINS_15__hash_iteratorIPNS_11__hash_nodeINS_17__hash_value_typeIccEEPvEEEEbEC1B8ue170006IS8_RbLS5_0EEEOT_OT0_, symObjAddr: 0x2F78, symBinAddr: 0x1000063B4, symSize: 0x3C }
  - { offsetInCU: 0xEF2C, offset: 0xEF2C, size: 0x8, addend: 0x0, symName: __ZNSt3__117__compressed_pairImNS_22__unordered_map_hasherIcNS_17__hash_value_typeIccEENS_4hashIcEENS_8equal_toIcEELb1EEEE6secondB8ue170006Ev, symObjAddr: 0x2FB4, symBinAddr: 0x1000063F0, symSize: 0x24 }
  - { offsetInCU: 0xEF50, offset: 0xEF50, size: 0x8, addend: 0x0, symName: __ZNSt3__122__compressed_pair_elemINS_22__unordered_map_hasherIcNS_17__hash_value_typeIccEENS_4hashIcEENS_8equal_toIcEELb1EEELi1ELb1EE5__getB8ue170006Ev, symObjAddr: 0x2FD8, symBinAddr: 0x100006414, symSize: 0x14 }
  - { offsetInCU: 0xEF74, offset: 0xEF74, size: 0x8, addend: 0x0, symName: __ZNKSt3__14hashIcEclB8ue170006Ec, symObjAddr: 0x2FEC, symBinAddr: 0x100006428, symSize: 0x18 }
  - { offsetInCU: 0xEFA7, offset: 0xEFA7, size: 0x8, addend: 0x0, symName: __ZNKSt3__110unique_ptrIA_PNS_16__hash_node_baseIPNS_11__hash_nodeINS_17__hash_value_typeIccEEPvEEEENS_25__bucket_list_deallocatorINS_9allocatorIS9_EEEEE11get_deleterB8ue170006Ev, symObjAddr: 0x3004, symBinAddr: 0x100006440, symSize: 0x24 }
  - { offsetInCU: 0xEFCB, offset: 0xEFCB, size: 0x8, addend: 0x0, symName: __ZNKSt3__125__bucket_list_deallocatorINS_9allocatorIPNS_16__hash_node_baseIPNS_11__hash_nodeINS_17__hash_value_typeIccEEPvEEEEEEE4sizeB8ue170006Ev, symObjAddr: 0x3028, symBinAddr: 0x100006464, symSize: 0x28 }
  - { offsetInCU: 0xEFEF, offset: 0xEFEF, size: 0x8, addend: 0x0, symName: __ZNKSt3__117__compressed_pairIPPNS_16__hash_node_baseIPNS_11__hash_nodeINS_17__hash_value_typeIccEEPvEEEENS_25__bucket_list_deallocatorINS_9allocatorIS9_EEEEE6secondB8ue170006Ev, symObjAddr: 0x3050, symBinAddr: 0x10000648C, symSize: 0x28 }
  - { offsetInCU: 0xF013, offset: 0xF013, size: 0x8, addend: 0x0, symName: __ZNKSt3__122__compressed_pair_elemINS_25__bucket_list_deallocatorINS_9allocatorIPNS_16__hash_node_baseIPNS_11__hash_nodeINS_17__hash_value_typeIccEEPvEEEEEEEELi1ELb0EE5__getB8ue170006Ev, symObjAddr: 0x3078, symBinAddr: 0x1000064B4, symSize: 0x14 }
  - { offsetInCU: 0xF037, offset: 0xF037, size: 0x8, addend: 0x0, symName: __ZNKSt3__117__compressed_pairImNS_9allocatorIPNS_16__hash_node_baseIPNS_11__hash_nodeINS_17__hash_value_typeIccEEPvEEEEEEE5firstB8ue170006Ev, symObjAddr: 0x308C, symBinAddr: 0x1000064C8, symSize: 0x24 }
  - { offsetInCU: 0xF05B, offset: 0xF05B, size: 0x8, addend: 0x0, symName: __ZNKSt3__117__compressed_pairIPPNS_16__hash_node_baseIPNS_11__hash_nodeINS_17__hash_value_typeIccEEPvEEEENS_25__bucket_list_deallocatorINS_9allocatorIS9_EEEEE5firstB8ue170006Ev, symObjAddr: 0x30B0, symBinAddr: 0x1000064EC, symSize: 0x24 }
  - { offsetInCU: 0xF07F, offset: 0xF07F, size: 0x8, addend: 0x0, symName: __ZNKSt3__122__compressed_pair_elemIPPNS_16__hash_node_baseIPNS_11__hash_nodeINS_17__hash_value_typeIccEEPvEEEELi0ELb0EE5__getB8ue170006Ev, symObjAddr: 0x30D4, symBinAddr: 0x100006510, symSize: 0x14 }
  - { offsetInCU: 0xF0A3, offset: 0xF0A3, size: 0x8, addend: 0x0, symName: __ZNSt3__117__compressed_pairIfNS_21__unordered_map_equalIcNS_17__hash_value_typeIccEENS_8equal_toIcEENS_4hashIcEELb1EEEE6secondB8ue170006Ev, symObjAddr: 0x30E8, symBinAddr: 0x100006524, symSize: 0x24 }
  - { offsetInCU: 0xF0C7, offset: 0xF0C7, size: 0x8, addend: 0x0, symName: __ZNSt3__122__compressed_pair_elemINS_21__unordered_map_equalIcNS_17__hash_value_typeIccEENS_8equal_toIcEENS_4hashIcEELb1EEELi1ELb1EE5__getB8ue170006Ev, symObjAddr: 0x310C, symBinAddr: 0x100006548, symSize: 0x14 }
  - { offsetInCU: 0xF0EB, offset: 0xF0EB, size: 0x8, addend: 0x0, symName: __ZNKSt3__18equal_toIcEclB8ue170006ERKcS3_, symObjAddr: 0x3120, symBinAddr: 0x10000655C, symSize: 0x34 }
  - { offsetInCU: 0xF12D, offset: 0xF12D, size: 0x8, addend: 0x0, symName: __ZNKSt3__117__hash_value_typeIccE11__get_valueB8ue170006Ev, symObjAddr: 0x3154, symBinAddr: 0x100006590, symSize: 0x14 }
  - { offsetInCU: 0xF152, offset: 0xF152, size: 0x8, addend: 0x0, symName: __ZNSt3__114pointer_traitsIPNS_16__hash_node_baseIPNS_11__hash_nodeINS_17__hash_value_typeIccEEPvEEEEE10pointer_toB8ue170006ERS8_, symObjAddr: 0x3168, symBinAddr: 0x1000065A4, symSize: 0x14 }
  - { offsetInCU: 0xF174, offset: 0xF174, size: 0x8, addend: 0x0, symName: __ZNSt3__112__hash_tableINS_17__hash_value_typeIccEENS_22__unordered_map_hasherIcS2_NS_4hashIcEENS_8equal_toIcEELb1EEENS_21__unordered_map_equalIcS2_S7_S5_Lb1EEENS_9allocatorIS2_EEE12__node_allocB8ue170006Ev, symObjAddr: 0x317C, symBinAddr: 0x1000065B8, symSize: 0x28 }
  - { offsetInCU: 0xF199, offset: 0xF199, size: 0x8, addend: 0x0, symName: __ZNSt3__116allocator_traitsINS_9allocatorINS_11__hash_nodeINS_17__hash_value_typeIccEEPvEEEEE8allocateB8ue170006ERS7_m, symObjAddr: 0x31A4, symBinAddr: 0x1000065E0, symSize: 0x2C }
  - { offsetInCU: 0xF1CA, offset: 0xF1CA, size: 0x8, addend: 0x0, symName: __ZNSt3__122__hash_node_destructorINS_9allocatorINS_11__hash_nodeINS_17__hash_value_typeIccEEPvEEEEEC1B8ue170006ERS7_b, symObjAddr: 0x31D0, symBinAddr: 0x10000660C, symSize: 0x48 }
  - { offsetInCU: 0xF215, offset: 0xF215, size: 0x8, addend: 0x0, symName: __ZNSt3__110unique_ptrINS_11__hash_nodeINS_17__hash_value_typeIccEEPvEENS_22__hash_node_destructorINS_9allocatorIS5_EEEEEC1B8ue170006ILb1EvEEPS5_NS_16__dependent_typeINS_27__unique_ptr_deleter_sfinaeIS9_EEXT_EE20__good_rval_ref_typeE, symObjAddr: 0x3218, symBinAddr: 0x100006654, symSize: 0x3C }
  - { offsetInCU: 0xF265, offset: 0xF265, size: 0x8, addend: 0x0, symName: __ZNSt3__116allocator_traitsINS_9allocatorINS_11__hash_nodeINS_17__hash_value_typeIccEEPvEEEEE9constructB8ue170006INS_4pairIKccEEJRKSC_EvEEvRS7_PT_DpOT0_, symObjAddr: 0x3254, symBinAddr: 0x100006690, symSize: 0x34 }
  - { offsetInCU: 0xF2BB, offset: 0xF2BB, size: 0x8, addend: 0x0, symName: __ZNSt3__122__hash_key_value_typesINS_17__hash_value_typeIccEEE9__get_ptrB8ue170006ERS2_, symObjAddr: 0x3288, symBinAddr: 0x1000066C4, symSize: 0x24 }
  - { offsetInCU: 0xF2DC, offset: 0xF2DC, size: 0x8, addend: 0x0, symName: __ZNSt3__110unique_ptrINS_11__hash_nodeINS_17__hash_value_typeIccEEPvEENS_22__hash_node_destructorINS_9allocatorIS5_EEEEE11get_deleterB8ue170006Ev, symObjAddr: 0x32AC, symBinAddr: 0x1000066E8, symSize: 0x24 }
  - { offsetInCU: 0xF300, offset: 0xF300, size: 0x8, addend: 0x0, symName: __ZNSt3__117__compressed_pairINS_16__hash_node_baseIPNS_11__hash_nodeINS_17__hash_value_typeIccEEPvEEEENS_9allocatorIS6_EEE6secondB8ue170006Ev, symObjAddr: 0x32D0, symBinAddr: 0x10000670C, symSize: 0x24 }
  - { offsetInCU: 0xF324, offset: 0xF324, size: 0x8, addend: 0x0, symName: __ZNSt3__122__compressed_pair_elemINS_9allocatorINS_11__hash_nodeINS_17__hash_value_typeIccEEPvEEEELi1ELb1EE5__getB8ue170006Ev, symObjAddr: 0x32F4, symBinAddr: 0x100006730, symSize: 0x14 }
  - { offsetInCU: 0xF348, offset: 0xF348, size: 0x8, addend: 0x0, symName: __ZNSt3__19allocatorINS_11__hash_nodeINS_17__hash_value_typeIccEEPvEEE8allocateB8ue170006Em, symObjAddr: 0x3308, symBinAddr: 0x100006744, symSize: 0x5C }
  - { offsetInCU: 0xF385, offset: 0xF385, size: 0x8, addend: 0x0, symName: __ZNSt3__116allocator_traitsINS_9allocatorINS_11__hash_nodeINS_17__hash_value_typeIccEEPvEEEEE8max_sizeB8ue170006IS7_vEEmRKS7_, symObjAddr: 0x3364, symBinAddr: 0x1000067A0, symSize: 0x24 }
  - { offsetInCU: 0xF3B1, offset: 0xF3B1, size: 0x8, addend: 0x0, symName: __ZNKSt3__19allocatorINS_11__hash_nodeINS_17__hash_value_typeIccEEPvEEE8max_sizeB8ue170006Ev, symObjAddr: 0x33E4, symBinAddr: 0x100006820, symSize: 0x18 }
  - { offsetInCU: 0xF3D6, offset: 0xF3D6, size: 0x8, addend: 0x0, symName: __ZNSt3__122__hash_node_destructorINS_9allocatorINS_11__hash_nodeINS_17__hash_value_typeIccEEPvEEEEEC2B8ue170006ERS7_b, symObjAddr: 0x3420, symBinAddr: 0x10000685C, symSize: 0x38 }
  - { offsetInCU: 0xF41B, offset: 0xF41B, size: 0x8, addend: 0x0, symName: __ZNSt3__110unique_ptrINS_11__hash_nodeINS_17__hash_value_typeIccEEPvEENS_22__hash_node_destructorINS_9allocatorIS5_EEEEEC2B8ue170006ILb1EvEEPS5_NS_16__dependent_typeINS_27__unique_ptr_deleter_sfinaeIS9_EEXT_EE20__good_rval_ref_typeE, symObjAddr: 0x3458, symBinAddr: 0x100006894, symSize: 0x48 }
  - { offsetInCU: 0xF46A, offset: 0xF46A, size: 0x8, addend: 0x0, symName: __ZNSt3__117__compressed_pairIPNS_11__hash_nodeINS_17__hash_value_typeIccEEPvEENS_22__hash_node_destructorINS_9allocatorIS5_EEEEEC1B8ue170006IRS6_SA_EEOT_OT0_, symObjAddr: 0x34A0, symBinAddr: 0x1000068DC, symSize: 0x3C }
  - { offsetInCU: 0xF4C0, offset: 0xF4C0, size: 0x8, addend: 0x0, symName: __ZNSt3__117__compressed_pairIPNS_11__hash_nodeINS_17__hash_value_typeIccEEPvEENS_22__hash_node_destructorINS_9allocatorIS5_EEEEEC2B8ue170006IRS6_SA_EEOT_OT0_, symObjAddr: 0x34DC, symBinAddr: 0x100006918, symSize: 0x48 }
  - { offsetInCU: 0xF517, offset: 0xF517, size: 0x8, addend: 0x0, symName: __ZNSt3__122__compressed_pair_elemIPNS_11__hash_nodeINS_17__hash_value_typeIccEEPvEELi0ELb0EEC2B8ue170006IRS6_vEEOT_, symObjAddr: 0x3524, symBinAddr: 0x100006960, symSize: 0x24 }
  - { offsetInCU: 0xF557, offset: 0xF557, size: 0x8, addend: 0x0, symName: __ZNSt3__122__compressed_pair_elemINS_22__hash_node_destructorINS_9allocatorINS_11__hash_nodeINS_17__hash_value_typeIccEEPvEEEEEELi1ELb0EEC2B8ue170006IS9_vEEOT_, symObjAddr: 0x3548, symBinAddr: 0x100006984, symSize: 0x24 }
  - { offsetInCU: 0xF596, offset: 0xF596, size: 0x8, addend: 0x0, symName: __ZNSt3__19allocatorINS_11__hash_nodeINS_17__hash_value_typeIccEEPvEEE9constructB8ue170006INS_4pairIKccEEJRKSA_EEEvPT_DpOT0_, symObjAddr: 0x356C, symBinAddr: 0x1000069A8, symSize: 0x28 }
  - { offsetInCU: 0xF5EA, offset: 0xF5EA, size: 0x8, addend: 0x0, symName: __ZNSt3__117__hash_value_typeIccE11__get_valueB8ue170006Ev, symObjAddr: 0x3594, symBinAddr: 0x1000069D0, symSize: 0x14 }
  - { offsetInCU: 0xF60E, offset: 0xF60E, size: 0x8, addend: 0x0, symName: __ZNSt3__117__compressed_pairIPNS_11__hash_nodeINS_17__hash_value_typeIccEEPvEENS_22__hash_node_destructorINS_9allocatorIS5_EEEEE6secondB8ue170006Ev, symObjAddr: 0x35A8, symBinAddr: 0x1000069E4, symSize: 0x28 }
  - { offsetInCU: 0xF632, offset: 0xF632, size: 0x8, addend: 0x0, symName: __ZNSt3__122__compressed_pair_elemINS_22__hash_node_destructorINS_9allocatorINS_11__hash_nodeINS_17__hash_value_typeIccEEPvEEEEEELi1ELb0EE5__getB8ue170006Ev, symObjAddr: 0x35D0, symBinAddr: 0x100006A0C, symSize: 0x14 }
  - { offsetInCU: 0xF656, offset: 0xF656, size: 0x8, addend: 0x0, symName: __ZNSt3__117__compressed_pairImNS_22__unordered_map_hasherIcNS_17__hash_value_typeIccEENS_4hashIcEENS_8equal_toIcEELb1EEEE5firstB8ue170006Ev, symObjAddr: 0x35E4, symBinAddr: 0x100006A20, symSize: 0x24 }
  - { offsetInCU: 0xF67A, offset: 0xF67A, size: 0x8, addend: 0x0, symName: __ZNSt3__117__compressed_pairIfNS_21__unordered_map_equalIcNS_17__hash_value_typeIccEENS_8equal_toIcEENS_4hashIcEELb1EEEE5firstB8ue170006Ev, symObjAddr: 0x3608, symBinAddr: 0x100006A44, symSize: 0x24 }
  - { offsetInCU: 0xF69E, offset: 0xF69E, size: 0x8, addend: 0x0, symName: __ZNSt3__122__compressed_pair_elemIfLi0ELb0EE5__getB8ue170006Ev, symObjAddr: 0x362C, symBinAddr: 0x100006A68, symSize: 0x14 }
  - { offsetInCU: 0xF6C2, offset: 0xF6C2, size: 0x8, addend: 0x0, symName: __ZNSt3__112__hash_tableINS_17__hash_value_typeIccEENS_22__unordered_map_hasherIcS2_NS_4hashIcEENS_8equal_toIcEELb1EEENS_21__unordered_map_equalIcS2_S7_S5_Lb1EEENS_9allocatorIS2_EEE8__rehashILb1EEEvm, symObjAddr: 0x3640, symBinAddr: 0x100006A7C, symSize: 0x1A8 }
  - { offsetInCU: 0xF710, offset: 0xF710, size: 0x8, addend: 0x0, symName: __ZNSt3__112__hash_tableINS_17__hash_value_typeIccEENS_22__unordered_map_hasherIcS2_NS_4hashIcEENS_8equal_toIcEELb1EEENS_21__unordered_map_equalIcS2_S7_S5_Lb1EEENS_9allocatorIS2_EEE11__do_rehashILb1EEEvm, symObjAddr: 0x37E8, symBinAddr: 0x100006C24, symSize: 0x288 }
  - { offsetInCU: 0xF7F1, offset: 0xF7F1, size: 0x8, addend: 0x0, symName: __ZNSt3__110unique_ptrIA_PNS_16__hash_node_baseIPNS_11__hash_nodeINS_17__hash_value_typeIccEEPvEEEENS_25__bucket_list_deallocatorINS_9allocatorIS9_EEEEE11get_deleterB8ue170006Ev, symObjAddr: 0x3ADC, symBinAddr: 0x100006F18, symSize: 0x24 }
  - { offsetInCU: 0xF815, offset: 0xF815, size: 0x8, addend: 0x0, symName: __ZNSt3__125__bucket_list_deallocatorINS_9allocatorIPNS_16__hash_node_baseIPNS_11__hash_nodeINS_17__hash_value_typeIccEEPvEEEEEEE7__allocB8ue170006Ev, symObjAddr: 0x3B00, symBinAddr: 0x100006F3C, symSize: 0x24 }
  - { offsetInCU: 0xF839, offset: 0xF839, size: 0x8, addend: 0x0, symName: __ZNSt3__110unique_ptrIA_PNS_16__hash_node_baseIPNS_11__hash_nodeINS_17__hash_value_typeIccEEPvEEEENS_25__bucket_list_deallocatorINS_9allocatorIS9_EEEEE5resetB8ue170006IPS9_EENS_9enable_ifIXsr28_CheckArrayPointerConversionIT_EE5valueEvE4typeESJ_, symObjAddr: 0x3B24, symBinAddr: 0x100006F60, symSize: 0x78 }
  - { offsetInCU: 0xF885, offset: 0xF885, size: 0x8, addend: 0x0, symName: __ZNSt3__116allocator_traitsINS_9allocatorIPNS_16__hash_node_baseIPNS_11__hash_nodeINS_17__hash_value_typeIccEEPvEEEEEEE8allocateB8ue170006ERSB_m, symObjAddr: 0x3B9C, symBinAddr: 0x100006FD8, symSize: 0x2C }
  - { offsetInCU: 0xF8B6, offset: 0xF8B6, size: 0x8, addend: 0x0, symName: __ZNSt3__125__bucket_list_deallocatorINS_9allocatorIPNS_16__hash_node_baseIPNS_11__hash_nodeINS_17__hash_value_typeIccEEPvEEEEEEE4sizeB8ue170006Ev, symObjAddr: 0x3BC8, symBinAddr: 0x100007004, symSize: 0x24 }
  - { offsetInCU: 0xF8DA, offset: 0xF8DA, size: 0x8, addend: 0x0, symName: __ZNSt3__117__compressed_pairIPPNS_16__hash_node_baseIPNS_11__hash_nodeINS_17__hash_value_typeIccEEPvEEEENS_25__bucket_list_deallocatorINS_9allocatorIS9_EEEEE6secondB8ue170006Ev, symObjAddr: 0x3BEC, symBinAddr: 0x100007028, symSize: 0x28 }
  - { offsetInCU: 0xF8FE, offset: 0xF8FE, size: 0x8, addend: 0x0, symName: __ZNSt3__122__compressed_pair_elemINS_25__bucket_list_deallocatorINS_9allocatorIPNS_16__hash_node_baseIPNS_11__hash_nodeINS_17__hash_value_typeIccEEPvEEEEEEEELi1ELb0EE5__getB8ue170006Ev, symObjAddr: 0x3C14, symBinAddr: 0x100007050, symSize: 0x14 }
  - { offsetInCU: 0xF922, offset: 0xF922, size: 0x8, addend: 0x0, symName: __ZNSt3__117__compressed_pairImNS_9allocatorIPNS_16__hash_node_baseIPNS_11__hash_nodeINS_17__hash_value_typeIccEEPvEEEEEEE6secondB8ue170006Ev, symObjAddr: 0x3C28, symBinAddr: 0x100007064, symSize: 0x24 }
  - { offsetInCU: 0xF946, offset: 0xF946, size: 0x8, addend: 0x0, symName: __ZNSt3__122__compressed_pair_elemINS_9allocatorIPNS_16__hash_node_baseIPNS_11__hash_nodeINS_17__hash_value_typeIccEEPvEEEEEELi1ELb1EE5__getB8ue170006Ev, symObjAddr: 0x3C4C, symBinAddr: 0x100007088, symSize: 0x14 }
  - { offsetInCU: 0xF96A, offset: 0xF96A, size: 0x8, addend: 0x0, symName: __ZNSt3__117__compressed_pairIPPNS_16__hash_node_baseIPNS_11__hash_nodeINS_17__hash_value_typeIccEEPvEEEENS_25__bucket_list_deallocatorINS_9allocatorIS9_EEEEE5firstB8ue170006Ev, symObjAddr: 0x3C60, symBinAddr: 0x10000709C, symSize: 0x24 }
  - { offsetInCU: 0xF98E, offset: 0xF98E, size: 0x8, addend: 0x0, symName: __ZNSt3__125__bucket_list_deallocatorINS_9allocatorIPNS_16__hash_node_baseIPNS_11__hash_nodeINS_17__hash_value_typeIccEEPvEEEEEEEclB8ue170006EPSA_, symObjAddr: 0x3C84, symBinAddr: 0x1000070C0, symSize: 0x58 }
  - { offsetInCU: 0xF9C1, offset: 0xF9C1, size: 0x8, addend: 0x0, symName: __ZNSt3__122__compressed_pair_elemIPPNS_16__hash_node_baseIPNS_11__hash_nodeINS_17__hash_value_typeIccEEPvEEEELi0ELb0EE5__getB8ue170006Ev, symObjAddr: 0x3CDC, symBinAddr: 0x100007118, symSize: 0x14 }
  - { offsetInCU: 0xF9E6, offset: 0xF9E6, size: 0x8, addend: 0x0, symName: __ZNSt3__116allocator_traitsINS_9allocatorIPNS_16__hash_node_baseIPNS_11__hash_nodeINS_17__hash_value_typeIccEEPvEEEEEEE10deallocateB8ue170006ERSB_PSA_m, symObjAddr: 0x3CF0, symBinAddr: 0x10000712C, symSize: 0x34 }
  - { offsetInCU: 0xFA26, offset: 0xFA26, size: 0x8, addend: 0x0, symName: __ZNSt3__19allocatorIPNS_16__hash_node_baseIPNS_11__hash_nodeINS_17__hash_value_typeIccEEPvEEEEE10deallocateB8ue170006EPS9_m, symObjAddr: 0x3D24, symBinAddr: 0x100007160, symSize: 0x40 }
  - { offsetInCU: 0xFA66, offset: 0xFA66, size: 0x8, addend: 0x0, symName: __ZNSt3__19allocatorIPNS_16__hash_node_baseIPNS_11__hash_nodeINS_17__hash_value_typeIccEEPvEEEEE8allocateB8ue170006Em, symObjAddr: 0x3D64, symBinAddr: 0x1000071A0, symSize: 0x58 }
  - { offsetInCU: 0xFAA3, offset: 0xFAA3, size: 0x8, addend: 0x0, symName: __ZNSt3__116allocator_traitsINS_9allocatorIPNS_16__hash_node_baseIPNS_11__hash_nodeINS_17__hash_value_typeIccEEPvEEEEEEE8max_sizeB8ue170006ISB_vEEmRKSB_, symObjAddr: 0x3DBC, symBinAddr: 0x1000071F8, symSize: 0x24 }
  - { offsetInCU: 0xFACF, offset: 0xFACF, size: 0x8, addend: 0x0, symName: __ZNKSt3__19allocatorIPNS_16__hash_node_baseIPNS_11__hash_nodeINS_17__hash_value_typeIccEEPvEEEEE8max_sizeB8ue170006Ev, symObjAddr: 0x3DE0, symBinAddr: 0x10000721C, symSize: 0x14 }
  - { offsetInCU: 0xFAF3, offset: 0xFAF3, size: 0x8, addend: 0x0, symName: __ZNSt3__117__compressed_pairImNS_9allocatorIPNS_16__hash_node_baseIPNS_11__hash_nodeINS_17__hash_value_typeIccEEPvEEEEEEE5firstB8ue170006Ev, symObjAddr: 0x3DF4, symBinAddr: 0x100007230, symSize: 0x24 }
  - { offsetInCU: 0xFB21, offset: 0xFB21, size: 0x8, addend: 0x0, symName: __ZNKSt3__16__lessIvvEclB8ue170006ImmEEbRKT_RKT0_, symObjAddr: 0x3E88, symBinAddr: 0x1000072C4, symSize: 0x34 }
  - { offsetInCU: 0xFB73, offset: 0xFB73, size: 0x8, addend: 0x0, symName: __ZNSt3__122__compressed_pair_elemINS_16__hash_node_baseIPNS_11__hash_nodeINS_17__hash_value_typeIccEEPvEEEELi0ELb0EE5__getB8ue170006Ev, symObjAddr: 0x3EBC, symBinAddr: 0x1000072F8, symSize: 0x14 }
  - { offsetInCU: 0xFB97, offset: 0xFB97, size: 0x8, addend: 0x0, symName: __ZNKSt3__117__compressed_pairIPNS_11__hash_nodeINS_17__hash_value_typeIccEEPvEENS_22__hash_node_destructorINS_9allocatorIS5_EEEEE5firstB8ue170006Ev, symObjAddr: 0x3ED0, symBinAddr: 0x10000730C, symSize: 0x24 }
  - { offsetInCU: 0xFBBB, offset: 0xFBBB, size: 0x8, addend: 0x0, symName: __ZNKSt3__122__compressed_pair_elemIPNS_11__hash_nodeINS_17__hash_value_typeIccEEPvEELi0ELb0EE5__getB8ue170006Ev, symObjAddr: 0x3EF4, symBinAddr: 0x100007330, symSize: 0x14 }
  - { offsetInCU: 0xFBDF, offset: 0xFBDF, size: 0x8, addend: 0x0, symName: __ZNSt3__117__compressed_pairIPNS_11__hash_nodeINS_17__hash_value_typeIccEEPvEENS_22__hash_node_destructorINS_9allocatorIS5_EEEEE5firstB8ue170006Ev, symObjAddr: 0x3F08, symBinAddr: 0x100007344, symSize: 0x24 }
  - { offsetInCU: 0xFC03, offset: 0xFC03, size: 0x8, addend: 0x0, symName: __ZNSt3__122__compressed_pair_elemIPNS_11__hash_nodeINS_17__hash_value_typeIccEEPvEELi0ELb0EE5__getB8ue170006Ev, symObjAddr: 0x3F2C, symBinAddr: 0x100007368, symSize: 0x14 }
  - { offsetInCU: 0xFC27, offset: 0xFC27, size: 0x8, addend: 0x0, symName: __ZNSt3__110unique_ptrINS_11__hash_nodeINS_17__hash_value_typeIccEEPvEENS_22__hash_node_destructorINS_9allocatorIS5_EEEEED2B8ue170006Ev, symObjAddr: 0x3F40, symBinAddr: 0x10000737C, symSize: 0x30 }
  - { offsetInCU: 0xFC4F, offset: 0xFC4F, size: 0x8, addend: 0x0, symName: __ZNSt3__110unique_ptrINS_11__hash_nodeINS_17__hash_value_typeIccEEPvEENS_22__hash_node_destructorINS_9allocatorIS5_EEEEE5resetB8ue170006EPS5_, symObjAddr: 0x3F70, symBinAddr: 0x1000073AC, symSize: 0x78 }
  - { offsetInCU: 0xFC91, offset: 0xFC91, size: 0x8, addend: 0x0, symName: __ZNSt3__122__hash_node_destructorINS_9allocatorINS_11__hash_nodeINS_17__hash_value_typeIccEEPvEEEEEclB8ue170006EPS6_, symObjAddr: 0x3FE8, symBinAddr: 0x100007424, symSize: 0x98 }
  - { offsetInCU: 0xFCC5, offset: 0xFCC5, size: 0x8, addend: 0x0, symName: __ZNSt3__116allocator_traitsINS_9allocatorINS_11__hash_nodeINS_17__hash_value_typeIccEEPvEEEEE7destroyB8ue170006INS_4pairIKccEEvvEEvRS7_PT_, symObjAddr: 0x4080, symBinAddr: 0x1000074BC, symSize: 0x14 }
  - { offsetInCU: 0xFCFF, offset: 0xFCFF, size: 0x8, addend: 0x0, symName: __ZNSt3__116allocator_traitsINS_9allocatorINS_11__hash_nodeINS_17__hash_value_typeIccEEPvEEEEE10deallocateB8ue170006ERS7_PS6_m, symObjAddr: 0x4094, symBinAddr: 0x1000074D0, symSize: 0x34 }
  - { offsetInCU: 0xFD3F, offset: 0xFD3F, size: 0x8, addend: 0x0, symName: __ZNSt3__19allocatorINS_11__hash_nodeINS_17__hash_value_typeIccEEPvEEE10deallocateB8ue170006EPS5_m, symObjAddr: 0x40C8, symBinAddr: 0x100007504, symSize: 0x44 }
  - { offsetInCU: 0xFD80, offset: 0xFD80, size: 0x8, addend: 0x0, symName: __ZNSt3__115__hash_iteratorIPNS_11__hash_nodeINS_17__hash_value_typeIccEEPvEEEC2B8ue170006EPNS_16__hash_node_baseIS6_EE, symObjAddr: 0x410C, symBinAddr: 0x100007548, symSize: 0x20 }
  - { offsetInCU: 0xFDB7, offset: 0xFDB7, size: 0x8, addend: 0x0, symName: __ZNSt3__14pairINS_15__hash_iteratorIPNS_11__hash_nodeINS_17__hash_value_typeIccEEPvEEEEbEC2B8ue170006IS8_RbLS5_0EEEOT_OT0_, symObjAddr: 0x412C, symBinAddr: 0x100007568, symSize: 0x38 }
  - { offsetInCU: 0xFE12, offset: 0xFE12, size: 0x8, addend: 0x0, symName: __ZNSt3__112__hash_tableINS_17__hash_value_typeIccEENS_22__unordered_map_hasherIcS2_NS_4hashIcEENS_8equal_toIcEELb1EEENS_21__unordered_map_equalIcS2_S7_S5_Lb1EEENS_9allocatorIS2_EEED2Ev, symObjAddr: 0x4164, symBinAddr: 0x1000075A0, symSize: 0x48 }
  - { offsetInCU: 0xFE3C, offset: 0xFE3C, size: 0x8, addend: 0x0, symName: __ZNSt3__112__hash_tableINS_17__hash_value_typeIccEENS_22__unordered_map_hasherIcS2_NS_4hashIcEENS_8equal_toIcEELb1EEENS_21__unordered_map_equalIcS2_S7_S5_Lb1EEENS_9allocatorIS2_EEE17__deallocate_nodeEPNS_16__hash_node_baseIPNS_11__hash_nodeIS2_PvEEEE, symObjAddr: 0x41AC, symBinAddr: 0x1000075E8, symSize: 0xA4 }
  - { offsetInCU: 0xFEA4, offset: 0xFEA4, size: 0x8, addend: 0x0, symName: __ZNSt3__110unique_ptrIA_PNS_16__hash_node_baseIPNS_11__hash_nodeINS_17__hash_value_typeIccEEPvEEEENS_25__bucket_list_deallocatorINS_9allocatorIS9_EEEEED1B8ue170006Ev, symObjAddr: 0x4250, symBinAddr: 0x10000768C, symSize: 0x2C }
  - { offsetInCU: 0xFECC, offset: 0xFECC, size: 0x8, addend: 0x0, symName: __ZNSt3__110unique_ptrIA_PNS_16__hash_node_baseIPNS_11__hash_nodeINS_17__hash_value_typeIccEEPvEEEENS_25__bucket_list_deallocatorINS_9allocatorIS9_EEEEED2B8ue170006Ev, symObjAddr: 0x427C, symBinAddr: 0x1000076B8, symSize: 0x30 }
  - { offsetInCU: 0xFEF4, offset: 0xFEF4, size: 0x8, addend: 0x0, symName: __ZNSt3__110unique_ptrIA_PNS_16__hash_node_baseIPNS_11__hash_nodeINS_17__hash_value_typeIccEEPvEEEENS_25__bucket_list_deallocatorINS_9allocatorIS9_EEEEE5resetB8ue170006EDn, symObjAddr: 0x42AC, symBinAddr: 0x1000076E8, symSize: 0x6C }
  - { offsetInCU: 0xFF32, offset: 0xFF32, size: 0x8, addend: 0x0, symName: __ZNSt3__113unordered_mapIccNS_4hashIcEENS_8equal_toIcEENS_9allocatorINS_4pairIKccEEEEED2B8ue170006Ev, symObjAddr: 0x4318, symBinAddr: 0x100007754, symSize: 0x2C }
  - { offsetInCU: 0xFF5A, offset: 0xFF5A, size: 0x8, addend: 0x0, symName: __ZNSt3__15stackIcNS_5dequeIcNS_9allocatorIcEEEEEC2B8ue170006Ev, symObjAddr: 0x4344, symBinAddr: 0x100007780, symSize: 0x2C }
  - { offsetInCU: 0xFF82, offset: 0xFF82, size: 0x8, addend: 0x0, symName: __ZNSt3__15dequeIcNS_9allocatorIcEEEC1B8ue170006Ev, symObjAddr: 0x4370, symBinAddr: 0x1000077AC, symSize: 0x2C }
  - { offsetInCU: 0xFFAA, offset: 0xFFAA, size: 0x8, addend: 0x0, symName: __ZNSt3__15dequeIcNS_9allocatorIcEEEC2B8ue170006Ev, symObjAddr: 0x439C, symBinAddr: 0x1000077D8, symSize: 0x5C }
  - { offsetInCU: 0xFFD2, offset: 0xFFD2, size: 0x8, addend: 0x0, symName: __ZNSt3__114__split_bufferIPcNS_9allocatorIS1_EEEC1B8ue170006Ev, symObjAddr: 0x43F8, symBinAddr: 0x100007834, symSize: 0x2C }
  - { offsetInCU: 0xFFFA, offset: 0xFFFA, size: 0x8, addend: 0x0, symName: __ZNSt3__117__compressed_pairImNS_9allocatorIcEEEC1B8ue170006IiNS_18__default_init_tagEEEOT_OT0_, symObjAddr: 0x4424, symBinAddr: 0x100007860, symSize: 0x3C }
  - { offsetInCU: 0x10050, offset: 0x10050, size: 0x8, addend: 0x0, symName: __ZNSt3__114__split_bufferIPcNS_9allocatorIS1_EEEC2B8ue170006Ev, symObjAddr: 0x4460, symBinAddr: 0x10000789C, symSize: 0x50 }
  - { offsetInCU: 0x1007D, offset: 0x1007D, size: 0x8, addend: 0x0, symName: __ZNSt3__117__compressed_pairIPPcNS_9allocatorIS1_EEEC1B8ue170006IDnNS_18__default_init_tagEEEOT_OT0_, symObjAddr: 0x44B0, symBinAddr: 0x1000078EC, symSize: 0x3C }
  - { offsetInCU: 0x100D3, offset: 0x100D3, size: 0x8, addend: 0x0, symName: __ZNSt3__117__compressed_pairIPPcNS_9allocatorIS1_EEEC2B8ue170006IDnNS_18__default_init_tagEEEOT_OT0_, symObjAddr: 0x44EC, symBinAddr: 0x100007928, symSize: 0x40 }
  - { offsetInCU: 0x1012A, offset: 0x1012A, size: 0x8, addend: 0x0, symName: __ZNSt3__122__compressed_pair_elemIPPcLi0ELb0EEC2B8ue170006IDnvEEOT_, symObjAddr: 0x452C, symBinAddr: 0x100007968, symSize: 0x1C }
  - { offsetInCU: 0x10169, offset: 0x10169, size: 0x8, addend: 0x0, symName: __ZNSt3__122__compressed_pair_elemINS_9allocatorIPcEELi1ELb1EEC2B8ue170006ENS_18__default_init_tagE, symObjAddr: 0x4548, symBinAddr: 0x100007984, symSize: 0x2C }
  - { offsetInCU: 0x1019B, offset: 0x1019B, size: 0x8, addend: 0x0, symName: __ZNSt3__19allocatorIPcEC2B8ue170006Ev, symObjAddr: 0x4574, symBinAddr: 0x1000079B0, symSize: 0x2C }
  - { offsetInCU: 0x101C4, offset: 0x101C4, size: 0x8, addend: 0x0, symName: __ZNSt3__116__non_trivial_ifILb1ENS_9allocatorIPcEEEC2B8ue170006Ev, symObjAddr: 0x45A0, symBinAddr: 0x1000079DC, symSize: 0x14 }
  - { offsetInCU: 0x101EB, offset: 0x101EB, size: 0x8, addend: 0x0, symName: __ZNSt3__117__compressed_pairImNS_9allocatorIcEEEC2B8ue170006IiNS_18__default_init_tagEEEOT_OT0_, symObjAddr: 0x45B4, symBinAddr: 0x1000079F0, symSize: 0x40 }
  - { offsetInCU: 0x10241, offset: 0x10241, size: 0x8, addend: 0x0, symName: __ZNSt3__122__compressed_pair_elemINS_9allocatorIcEELi1ELb1EEC2B8ue170006ENS_18__default_init_tagE, symObjAddr: 0x45F4, symBinAddr: 0x100007A30, symSize: 0x2C }
  - { offsetInCU: 0x10273, offset: 0x10273, size: 0x8, addend: 0x0, symName: __ZNSt3__19allocatorIcEC2B8ue170006Ev, symObjAddr: 0x4620, symBinAddr: 0x100007A5C, symSize: 0x2C }
  - { offsetInCU: 0x1029C, offset: 0x1029C, size: 0x8, addend: 0x0, symName: __ZNSt3__116__non_trivial_ifILb1ENS_9allocatorIcEEEC2B8ue170006Ev, symObjAddr: 0x464C, symBinAddr: 0x100007A88, symSize: 0x14 }
  - { offsetInCU: 0x102C3, offset: 0x102C3, size: 0x8, addend: 0x0, symName: __ZNSt3__112basic_stringIcNS_11char_traitsIcEENS_9allocatorIcEEE15__make_iteratorB8ue170006EPc, symObjAddr: 0x4660, symBinAddr: 0x100007A9C, symSize: 0x30 }
  - { offsetInCU: 0x102F6, offset: 0x102F6, size: 0x8, addend: 0x0, symName: __ZNSt3__112basic_stringIcNS_11char_traitsIcEENS_9allocatorIcEEE13__get_pointerB8ue170006Ev, symObjAddr: 0x4690, symBinAddr: 0x100007ACC, symSize: 0x54 }
  - { offsetInCU: 0x1031A, offset: 0x1031A, size: 0x8, addend: 0x0, symName: __ZNSt3__111__wrap_iterIPcEC1B8ue170006ES1_, symObjAddr: 0x46E4, symBinAddr: 0x100007B20, symSize: 0x34 }
  - { offsetInCU: 0x10351, offset: 0x10351, size: 0x8, addend: 0x0, symName: __ZNSt3__111__wrap_iterIPcEC2B8ue170006ES1_, symObjAddr: 0x4718, symBinAddr: 0x100007B54, symSize: 0x20 }
  - { offsetInCU: 0x10386, offset: 0x10386, size: 0x8, addend: 0x0, symName: __ZNSt3__112basic_stringIcNS_11char_traitsIcEENS_9allocatorIcEEE18__get_long_pointerB8ue170006Ev, symObjAddr: 0x4738, symBinAddr: 0x100007B74, symSize: 0x28 }
  - { offsetInCU: 0x103AA, offset: 0x103AA, size: 0x8, addend: 0x0, symName: __ZNSt3__112basic_stringIcNS_11char_traitsIcEENS_9allocatorIcEEE19__get_short_pointerB8ue170006Ev, symObjAddr: 0x4760, symBinAddr: 0x100007B9C, symSize: 0x28 }
  - { offsetInCU: 0x103CE, offset: 0x103CE, size: 0x8, addend: 0x0, symName: __ZNSt3__117__compressed_pairINS_12basic_stringIcNS_11char_traitsIcEENS_9allocatorIcEEE5__repES5_E5firstB8ue170006Ev, symObjAddr: 0x4788, symBinAddr: 0x100007BC4, symSize: 0x24 }
  - { offsetInCU: 0x103F2, offset: 0x103F2, size: 0x8, addend: 0x0, symName: __ZNSt3__122__compressed_pair_elemINS_12basic_stringIcNS_11char_traitsIcEENS_9allocatorIcEEE5__repELi0ELb0EE5__getB8ue170006Ev, symObjAddr: 0x47AC, symBinAddr: 0x100007BE8, symSize: 0x14 }
  - { offsetInCU: 0x10417, offset: 0x10417, size: 0x8, addend: 0x0, symName: __ZNSt3__114pointer_traitsIPcE10pointer_toB8ue170006ERc, symObjAddr: 0x47C0, symBinAddr: 0x100007BFC, symSize: 0x14 }
  - { offsetInCU: 0x10439, offset: 0x10439, size: 0x8, addend: 0x0, symName: __ZNKSt3__112__hash_tableINS_17__hash_value_typeIccEENS_22__unordered_map_hasherIcS2_NS_4hashIcEENS_8equal_toIcEELb1EEENS_21__unordered_map_equalIcS2_S7_S5_Lb1EEENS_9allocatorIS2_EEE14__count_uniqueIcEEmRKT_, symObjAddr: 0x47D4, symBinAddr: 0x100007C10, symSize: 0x64 }
  - { offsetInCU: 0x10477, offset: 0x10477, size: 0x8, addend: 0x0, symName: __ZNKSt3__112__hash_tableINS_17__hash_value_typeIccEENS_22__unordered_map_hasherIcS2_NS_4hashIcEENS_8equal_toIcEELb1EEENS_21__unordered_map_equalIcS2_S7_S5_Lb1EEENS_9allocatorIS2_EEE4findIcEENS_21__hash_const_iteratorIPNS_11__hash_nodeIS2_PvEEEERKT_, symObjAddr: 0x486C, symBinAddr: 0x100007CA8, symSize: 0x1B8 }
  - { offsetInCU: 0x104FF, offset: 0x104FF, size: 0x8, addend: 0x0, symName: __ZNKSt3__112__hash_tableINS_17__hash_value_typeIccEENS_22__unordered_map_hasherIcS2_NS_4hashIcEENS_8equal_toIcEELb1EEENS_21__unordered_map_equalIcS2_S7_S5_Lb1EEENS_9allocatorIS2_EEE3endEv, symObjAddr: 0x4A24, symBinAddr: 0x100007E60, symSize: 0x2C }
  - { offsetInCU: 0x10525, offset: 0x10525, size: 0x8, addend: 0x0, symName: __ZNKSt3__112__hash_tableINS_17__hash_value_typeIccEENS_22__unordered_map_hasherIcS2_NS_4hashIcEENS_8equal_toIcEELb1EEENS_21__unordered_map_equalIcS2_S7_S5_Lb1EEENS_9allocatorIS2_EEE13hash_functionB8ue170006Ev, symObjAddr: 0x4A80, symBinAddr: 0x100007EBC, symSize: 0x28 }
  - { offsetInCU: 0x10549, offset: 0x10549, size: 0x8, addend: 0x0, symName: __ZNKSt3__112__hash_tableINS_17__hash_value_typeIccEENS_22__unordered_map_hasherIcS2_NS_4hashIcEENS_8equal_toIcEELb1EEENS_21__unordered_map_equalIcS2_S7_S5_Lb1EEENS_9allocatorIS2_EEE6key_eqB8ue170006Ev, symObjAddr: 0x4AA8, symBinAddr: 0x100007EE4, symSize: 0x28 }
  - { offsetInCU: 0x1056D, offset: 0x1056D, size: 0x8, addend: 0x0, symName: __ZNSt3__121__hash_const_iteratorIPNS_11__hash_nodeINS_17__hash_value_typeIccEEPvEEEC1B8ue170006EPNS_16__hash_node_baseIS6_EE, symObjAddr: 0x4AD0, symBinAddr: 0x100007F0C, symSize: 0x34 }
  - { offsetInCU: 0x105A4, offset: 0x105A4, size: 0x8, addend: 0x0, symName: __ZNKSt3__117__compressed_pairImNS_22__unordered_map_hasherIcNS_17__hash_value_typeIccEENS_4hashIcEENS_8equal_toIcEELb1EEEE6secondB8ue170006Ev, symObjAddr: 0x4B04, symBinAddr: 0x100007F40, symSize: 0x24 }
  - { offsetInCU: 0x105C8, offset: 0x105C8, size: 0x8, addend: 0x0, symName: __ZNKSt3__122__compressed_pair_elemINS_22__unordered_map_hasherIcNS_17__hash_value_typeIccEENS_4hashIcEENS_8equal_toIcEELb1EEELi1ELb1EE5__getB8ue170006Ev, symObjAddr: 0x4B28, symBinAddr: 0x100007F64, symSize: 0x14 }
  - { offsetInCU: 0x105EC, offset: 0x105EC, size: 0x8, addend: 0x0, symName: __ZNKSt3__117__compressed_pairIfNS_21__unordered_map_equalIcNS_17__hash_value_typeIccEENS_8equal_toIcEENS_4hashIcEELb1EEEE6secondB8ue170006Ev, symObjAddr: 0x4B3C, symBinAddr: 0x100007F78, symSize: 0x24 }
  - { offsetInCU: 0x10610, offset: 0x10610, size: 0x8, addend: 0x0, symName: __ZNKSt3__122__compressed_pair_elemINS_21__unordered_map_equalIcNS_17__hash_value_typeIccEENS_8equal_toIcEENS_4hashIcEELb1EEELi1ELb1EE5__getB8ue170006Ev, symObjAddr: 0x4B60, symBinAddr: 0x100007F9C, symSize: 0x14 }
  - { offsetInCU: 0x10635, offset: 0x10635, size: 0x8, addend: 0x0, symName: __ZNSt3__121__hash_const_iteratorIPNS_11__hash_nodeINS_17__hash_value_typeIccEEPvEEEC2B8ue170006EPNS_16__hash_node_baseIS6_EE, symObjAddr: 0x4B74, symBinAddr: 0x100007FB0, symSize: 0x20 }
  - { offsetInCU: 0x1066B, offset: 0x1066B, size: 0x8, addend: 0x0, symName: __ZNSt3__15dequeIcNS_9allocatorIcEEE4backEv, symObjAddr: 0x4B94, symBinAddr: 0x100007FD0, symSize: 0x68 }
  - { offsetInCU: 0x106B4, offset: 0x106B4, size: 0x8, addend: 0x0, symName: __ZNSt3__112__hash_tableINS_17__hash_value_typeIccEENS_22__unordered_map_hasherIcS2_NS_4hashIcEENS_8equal_toIcEELb1EEENS_21__unordered_map_equalIcS2_S7_S5_Lb1EEENS_9allocatorIS2_EEE25__emplace_unique_key_argsIcJRKNS_21piecewise_construct_tENS_5tupleIJRKcEEENSI_IJEEEEEENS_4pairINS_15__hash_iteratorIPNS_11__hash_nodeIS2_PvEEEEbEERKT_DpOT0_, symObjAddr: 0x4BFC, symBinAddr: 0x100008038, symSize: 0x4B0 }
  - { offsetInCU: 0x107BB, offset: 0x107BB, size: 0x8, addend: 0x0, symName: __ZNKSt3__115__hash_iteratorIPNS_11__hash_nodeINS_17__hash_value_typeIccEEPvEEEptB8ue170006Ev, symObjAddr: 0x50DC, symBinAddr: 0x100008518, symSize: 0x30 }
  - { offsetInCU: 0x107DF, offset: 0x107DF, size: 0x8, addend: 0x0, symName: __ZNSt3__112__hash_tableINS_17__hash_value_typeIccEENS_22__unordered_map_hasherIcS2_NS_4hashIcEENS_8equal_toIcEELb1EEENS_21__unordered_map_equalIcS2_S7_S5_Lb1EEENS_9allocatorIS2_EEE21__construct_node_hashIRKNS_21piecewise_construct_tEJNS_5tupleIJRKcEEENSI_IJEEEEEENS_10unique_ptrINS_11__hash_nodeIS2_PvEENS_22__hash_node_destructorINSB_ISQ_EEEEEEmOT_DpOT0_, symObjAddr: 0x510C, symBinAddr: 0x100008548, symSize: 0x150 }
  - { offsetInCU: 0x1087A, offset: 0x1087A, size: 0x8, addend: 0x0, symName: __ZNSt3__116allocator_traitsINS_9allocatorINS_11__hash_nodeINS_17__hash_value_typeIccEEPvEEEEE9constructB8ue170006INS_4pairIKccEEJRKNS_21piecewise_construct_tENS_5tupleIJRSB_EEENSG_IJEEEEvEEvRS7_PT_DpOT0_, symObjAddr: 0x525C, symBinAddr: 0x100008698, symSize: 0x44 }
  - { offsetInCU: 0x108F7, offset: 0x108F7, size: 0x8, addend: 0x0, symName: __ZNSt3__19allocatorINS_11__hash_nodeINS_17__hash_value_typeIccEEPvEEE9constructB8ue170006INS_4pairIKccEEJRKNS_21piecewise_construct_tENS_5tupleIJRS9_EEENSE_IJEEEEEEvPT_DpOT0_, symObjAddr: 0x52A0, symBinAddr: 0x1000086DC, symSize: 0x44 }
  - { offsetInCU: 0x10971, offset: 0x10971, size: 0x8, addend: 0x0, symName: __ZNSt3__14pairIKccEC1B8ue170006IJRS1_EJEEENS_21piecewise_construct_tENS_5tupleIJDpT_EEENS6_IJDpT0_EEE, symObjAddr: 0x52E4, symBinAddr: 0x100008720, symSize: 0x44 }
  - { offsetInCU: 0x109D7, offset: 0x109D7, size: 0x8, addend: 0x0, symName: __ZNSt3__14pairIKccEC1B8ue170006IJRS1_EJEJLm0EEJEEENS_21piecewise_construct_tERNS_5tupleIJDpT_EEERNS6_IJDpT0_EEENS_15__tuple_indicesIJXspT1_EEEENSF_IJXspT2_EEEE, symObjAddr: 0x5328, symBinAddr: 0x100008764, symSize: 0x3C }
  - { offsetInCU: 0x10A63, offset: 0x10A63, size: 0x8, addend: 0x0, symName: __ZNSt3__14pairIKccEC2B8ue170006IJRS1_EJEJLm0EEJEEENS_21piecewise_construct_tERNS_5tupleIJDpT_EEERNS6_IJDpT0_EEENS_15__tuple_indicesIJXspT1_EEEENSF_IJXspT2_EEEE, symObjAddr: 0x5364, symBinAddr: 0x1000087A0, symSize: 0x48 }
  - { offsetInCU: 0x10AEE, offset: 0x10AEE, size: 0x8, addend: 0x0, symName: __ZNSt3__112__tuple_leafILm0ERKcLb0EE3getB8ue170006Ev, symObjAddr: 0x53D0, symBinAddr: 0x10000880C, symSize: 0x18 }
  - { offsetInCU: 0x10B12, offset: 0x10B12, size: 0x8, addend: 0x0, symName: __ZNSt3__15tupleIJRKcEEC1B8ue170006INS_4_AndELi0EEES2_, symObjAddr: 0x53E8, symBinAddr: 0x100008824, symSize: 0x34 }
  - { offsetInCU: 0x10B58, offset: 0x10B58, size: 0x8, addend: 0x0, symName: __ZNSt3__15tupleIJRKcEEC2B8ue170006INS_4_AndELi0EEES2_, symObjAddr: 0x541C, symBinAddr: 0x100008858, symSize: 0x34 }
  - { offsetInCU: 0x10B9E, offset: 0x10B9E, size: 0x8, addend: 0x0, symName: __ZNSt3__112__tuple_implINS_15__tuple_indicesIJLm0EEEEJRKcEEC1B8ue170006IJLm0EEJS4_EJEJEJS4_EEENS1_IJXspT_EEEENS_13__tuple_typesIJDpT0_EEENS1_IJXspT1_EEEENS8_IJDpT2_EEEDpOT3_, symObjAddr: 0x5450, symBinAddr: 0x10000888C, symSize: 0x34 }
  - { offsetInCU: 0x10C2D, offset: 0x10C2D, size: 0x8, addend: 0x0, symName: __ZNSt3__112__tuple_implINS_15__tuple_indicesIJLm0EEEEJRKcEEC2B8ue170006IJLm0EEJS4_EJEJEJS4_EEENS1_IJXspT_EEEENS_13__tuple_typesIJDpT0_EEENS1_IJXspT1_EEEENS8_IJDpT2_EEEDpOT3_, symObjAddr: 0x5484, symBinAddr: 0x1000088C0, symSize: 0x34 }
  - { offsetInCU: 0x10CBD, offset: 0x10CBD, size: 0x8, addend: 0x0, symName: __ZNSt3__112__tuple_leafILm0ERKcLb0EEC2B8ue170006IS2_vEEOT_, symObjAddr: 0x54B8, symBinAddr: 0x1000088F4, symSize: 0x20 }
  - { offsetInCU: 0x10CFE, offset: 0x10CFE, size: 0x8, addend: 0x0, symName: __ZNSt3__114pointer_traitsIPNS_17__hash_value_typeIccEEE10pointer_toB8ue170006ERS2_, symObjAddr: 0x54D8, symBinAddr: 0x100008914, symSize: 0x14 }
  - { offsetInCU: 0x10D20, offset: 0x10D20, size: 0x8, addend: 0x0, symName: __ZNSt3__15dequeIcNS_9allocatorIcEEE8pop_backEv, symObjAddr: 0x54EC, symBinAddr: 0x100008928, symSize: 0xE0 }
  - { offsetInCU: 0x10D82, offset: 0x10D82, size: 0x8, addend: 0x0, symName: __ZNKSt3__15dequeIcNS_9allocatorIcEEE22__annotate_shrink_backB8ue170006Emm, symObjAddr: 0x55CC, symBinAddr: 0x100008A08, symSize: 0x60 }
  - { offsetInCU: 0x10DC4, offset: 0x10DC4, size: 0x8, addend: 0x0, symName: __ZNSt3__15dequeIcNS_9allocatorIcEEE25__maybe_remove_back_spareB8ue170006Eb, symObjAddr: 0x562C, symBinAddr: 0x100008A68, symSize: 0xE8 }
  - { offsetInCU: 0x10DF7, offset: 0x10DF7, size: 0x8, addend: 0x0, symName: __ZNKSt3__15dequeIcNS_9allocatorIcEEE19__back_spare_blocksB8ue170006Ev, symObjAddr: 0x5714, symBinAddr: 0x100008B50, symSize: 0x2C }
  - { offsetInCU: 0x10E1B, offset: 0x10E1B, size: 0x8, addend: 0x0, symName: __ZNSt3__114__split_bufferIPcNS_9allocatorIS1_EEE4backB8ue170006Ev, symObjAddr: 0x5740, symBinAddr: 0x100008B7C, symSize: 0x1C }
  - { offsetInCU: 0x10E3F, offset: 0x10E3F, size: 0x8, addend: 0x0, symName: __ZNSt3__114__split_bufferIPcNS_9allocatorIS1_EEE8pop_backB8ue170006Ev, symObjAddr: 0x575C, symBinAddr: 0x100008B98, symSize: 0x2C }
  - { offsetInCU: 0x10E63, offset: 0x10E63, size: 0x8, addend: 0x0, symName: __ZNKSt3__15dequeIcNS_9allocatorIcEEE12__back_spareB8ue170006Ev, symObjAddr: 0x5788, symBinAddr: 0x100008BC4, symSize: 0x54 }
  - { offsetInCU: 0x10E87, offset: 0x10E87, size: 0x8, addend: 0x0, symName: __ZNKSt3__15dequeIcNS_9allocatorIcEEE10__capacityB8ue170006Ev, symObjAddr: 0x57DC, symBinAddr: 0x100008C18, symSize: 0x60 }
  - { offsetInCU: 0x10EAB, offset: 0x10EAB, size: 0x8, addend: 0x0, symName: __ZNSt3__15dequeIcNS_9allocatorIcEEE9push_backERKc, symObjAddr: 0x583C, symBinAddr: 0x100008C78, symSize: 0xAC }
  - { offsetInCU: 0x10EEF, offset: 0x10EEF, size: 0x8, addend: 0x0, symName: __ZNSt3__15dequeIcNS_9allocatorIcEEE19__add_back_capacityEv, symObjAddr: 0x58E8, symBinAddr: 0x100008D24, symSize: 0x34C }
  - { offsetInCU: 0x10FA2, offset: 0x10FA2, size: 0x8, addend: 0x0, symName: __ZNKSt3__15dequeIcNS_9allocatorIcEEE24__annotate_increase_backB8ue170006Em, symObjAddr: 0x5C34, symBinAddr: 0x100009070, symSize: 0x7C }
  - { offsetInCU: 0x10FD6, offset: 0x10FD6, size: 0x8, addend: 0x0, symName: __ZNSt3__116allocator_traitsINS_9allocatorIcEEE9constructB8ue170006IcJRKcEvEEvRS2_PT_DpOT0_, symObjAddr: 0x5CB0, symBinAddr: 0x1000090EC, symSize: 0x34 }
  - { offsetInCU: 0x1102B, offset: 0x1102B, size: 0x8, addend: 0x0, symName: __ZNKSt3__15dequeIcNS_9allocatorIcEEE13__front_spareB8ue170006Ev, symObjAddr: 0x5CE4, symBinAddr: 0x100009120, symSize: 0x18 }
  - { offsetInCU: 0x1104F, offset: 0x1104F, size: 0x8, addend: 0x0, symName: __ZNSt3__114__split_bufferIPcNS_9allocatorIS1_EEE9push_backB8ue170006ERKS1_, symObjAddr: 0x5CFC, symBinAddr: 0x100009138, symSize: 0x260 }
  - { offsetInCU: 0x110C5, offset: 0x110C5, size: 0x8, addend: 0x0, symName: __ZNKSt3__114__split_bufferIPcNS_9allocatorIS1_EEE12__back_spareB8ue170006Ev, symObjAddr: 0x5F5C, symBinAddr: 0x100009398, symSize: 0x40 }
  - { offsetInCU: 0x110E9, offset: 0x110E9, size: 0x8, addend: 0x0, symName: __ZNSt3__114__split_bufferIPcNS_9allocatorIS1_EEE9push_backEOS1_, symObjAddr: 0x5F9C, symBinAddr: 0x1000093D8, symSize: 0x260 }
  - { offsetInCU: 0x11160, offset: 0x11160, size: 0x8, addend: 0x0, symName: __ZNSt3__116allocator_traitsINS_9allocatorIcEEE8allocateB8ue170006ERS2_m, symObjAddr: 0x61FC, symBinAddr: 0x100009638, symSize: 0x2C }
  - { offsetInCU: 0x11191, offset: 0x11191, size: 0x8, addend: 0x0, symName: __ZNSt3__114__split_bufferIPcNS_9allocatorIS1_EEE10push_frontEOS1_, symObjAddr: 0x6228, symBinAddr: 0x100009664, symSize: 0x25C }
  - { offsetInCU: 0x11207, offset: 0x11207, size: 0x8, addend: 0x0, symName: __ZNSt3__114__split_bufferIPcRNS_9allocatorIS1_EEEC1EmmS4_, symObjAddr: 0x6484, symBinAddr: 0x1000098C0, symSize: 0x44 }
  - { offsetInCU: 0x11260, offset: 0x11260, size: 0x8, addend: 0x0, symName: __ZNSt3__122__allocator_destructorINS_9allocatorIcEEEC1B8ue170006ERS2_m, symObjAddr: 0x64C8, symBinAddr: 0x100009904, symSize: 0x3C }
  - { offsetInCU: 0x11321, offset: 0x11321, size: 0x8, addend: 0x0, symName: __ZNSt3__110unique_ptrIPcNS_22__allocator_destructorINS_9allocatorIcEEEEEC1B8ue170006ILb1EvEES1_NS_16__dependent_typeINS_27__unique_ptr_deleter_sfinaeIS5_EEXT_EE20__good_rval_ref_typeE, symObjAddr: 0x6504, symBinAddr: 0x100009940, symSize: 0x3C }
  - { offsetInCU: 0x11370, offset: 0x11370, size: 0x8, addend: 0x0, symName: __ZNSt3__114__split_bufferIPcRNS_9allocatorIS1_EEE9push_backEOS1_, symObjAddr: 0x6540, symBinAddr: 0x10000997C, symSize: 0x260 }
  - { offsetInCU: 0x113E6, offset: 0x113E6, size: 0x8, addend: 0x0, symName: __ZNKSt3__110unique_ptrIPcNS_22__allocator_destructorINS_9allocatorIcEEEEE3getB8ue170006Ev, symObjAddr: 0x67A0, symBinAddr: 0x100009BDC, symSize: 0x28 }
  - { offsetInCU: 0x1140A, offset: 0x1140A, size: 0x8, addend: 0x0, symName: __ZNSt3__110unique_ptrIPcNS_22__allocator_destructorINS_9allocatorIcEEEEE7releaseB8ue170006Ev, symObjAddr: 0x67C8, symBinAddr: 0x100009C04, symSize: 0x44 }
  - { offsetInCU: 0x1143D, offset: 0x1143D, size: 0x8, addend: 0x0, symName: __ZNSt3__114__split_bufferIPcRNS_9allocatorIS1_EEE10push_frontERKS1_, symObjAddr: 0x680C, symBinAddr: 0x100009C48, symSize: 0x25C }
  - { offsetInCU: 0x114B3, offset: 0x114B3, size: 0x8, addend: 0x0, symName: __ZNSt3__114__split_bufferIPcNS_9allocatorIS1_EEE9__end_capB8ue170006Ev, symObjAddr: 0x6AA4, symBinAddr: 0x100009EE0, symSize: 0x28 }
  - { offsetInCU: 0x114D7, offset: 0x114D7, size: 0x8, addend: 0x0, symName: __ZNSt3__114__split_bufferIPcRNS_9allocatorIS1_EEE9__end_capB8ue170006Ev, symObjAddr: 0x6ACC, symBinAddr: 0x100009F08, symSize: 0x28 }
  - { offsetInCU: 0x114FB, offset: 0x114FB, size: 0x8, addend: 0x0, symName: __ZNSt3__110unique_ptrIPcNS_22__allocator_destructorINS_9allocatorIcEEEEED1B8ue170006Ev, symObjAddr: 0x6AF4, symBinAddr: 0x100009F30, symSize: 0x2C }
  - { offsetInCU: 0x11523, offset: 0x11523, size: 0x8, addend: 0x0, symName: __ZNSt3__114__split_bufferIPcRNS_9allocatorIS1_EEED1Ev, symObjAddr: 0x6B20, symBinAddr: 0x100009F5C, symSize: 0x2C }
  - { offsetInCU: 0x1154D, offset: 0x1154D, size: 0x8, addend: 0x0, symName: __ZNSt3__114__split_bufferIPcRNS_9allocatorIS1_EEE18__construct_at_endINS_13move_iteratorIPS1_EEEENS_9enable_ifIXsr31__has_forward_iterator_categoryIT_EE5valueEvE4typeESB_SB_, symObjAddr: 0x6B8C, symBinAddr: 0x100009FC8, symSize: 0x60 }
  - { offsetInCU: 0x11598, offset: 0x11598, size: 0x8, addend: 0x0, symName: __ZNSt3__113move_iteratorIPPcEC1B8ue170006ES2_, symObjAddr: 0x6BEC, symBinAddr: 0x10000A028, symSize: 0x34 }
  - { offsetInCU: 0x115CF, offset: 0x115CF, size: 0x8, addend: 0x0, symName: __ZNSt3__116allocator_traitsINS_9allocatorIPcEEE9constructB8ue170006IS2_JRKS2_EvEEvRS3_PT_DpOT0_, symObjAddr: 0x6C20, symBinAddr: 0x10000A05C, symSize: 0x34 }
  - { offsetInCU: 0x11647, offset: 0x11647, size: 0x8, addend: 0x0, symName: __ZNKSt3__114__move_trivialclB8ue170006IPcS2_Li0EEENS_4pairIPT_PT0_EES5_S5_S7_, symObjAddr: 0x6DF0, symBinAddr: 0x10000A22C, symSize: 0x48 }
  - { offsetInCU: 0x116B2, offset: 0x116B2, size: 0x8, addend: 0x0, symName: __ZNSt3__14pairIPPcS2_EC1B8ue170006IRS2_S2_LPv0EEEOT_OT0_, symObjAddr: 0x7018, symBinAddr: 0x10000A454, symSize: 0x3C }
  - { offsetInCU: 0x1170F, offset: 0x1170F, size: 0x8, addend: 0x0, symName: __ZNSt3__14pairIPPcS2_EC2B8ue170006IRS2_S2_LPv0EEEOT_OT0_, symObjAddr: 0x7054, symBinAddr: 0x10000A490, symSize: 0x34 }
  - { offsetInCU: 0x1176B, offset: 0x1176B, size: 0x8, addend: 0x0, symName: __ZNSt3__118__unwrap_iter_implIPPcLb1EE8__unwrapB8ue170006ES2_, symObjAddr: 0x7088, symBinAddr: 0x10000A4C4, symSize: 0x24 }
  - { offsetInCU: 0x1178C, offset: 0x1178C, size: 0x8, addend: 0x0, symName: __ZNSt3__14pairIPPcS2_EC1B8ue170006IS2_S2_LPv0EEEOT_OT0_, symObjAddr: 0x70AC, symBinAddr: 0x10000A4E8, symSize: 0x3C }
  - { offsetInCU: 0x117E9, offset: 0x117E9, size: 0x8, addend: 0x0, symName: __ZNSt3__14pairIPPcS2_EC2B8ue170006IS2_S2_LPv0EEEOT_OT0_, symObjAddr: 0x70E8, symBinAddr: 0x10000A524, symSize: 0x34 }
  - { offsetInCU: 0x11845, offset: 0x11845, size: 0x8, addend: 0x0, symName: __ZNSt3__118__unwrap_iter_implIPPcLb1EE8__rewrapB8ue170006ES2_S2_, symObjAddr: 0x711C, symBinAddr: 0x10000A558, symSize: 0x50 }
  - { offsetInCU: 0x11874, offset: 0x11874, size: 0x8, addend: 0x0, symName: __ZNSt3__114__split_bufferIPcRNS_9allocatorIS1_EEE28__construct_at_end_with_sizeINS_13move_iteratorIPS1_EEEEvT_m, symObjAddr: 0x716C, symBinAddr: 0x10000A5A8, symSize: 0xDC }
  - { offsetInCU: 0x118D8, offset: 0x118D8, size: 0x8, addend: 0x0, symName: __ZNSt3__114__split_bufferIPcRNS_9allocatorIS1_EEE21_ConstructTransactionC1B8ue170006EPPS1_m, symObjAddr: 0x7284, symBinAddr: 0x10000A6C0, symSize: 0x3C }
  - { offsetInCU: 0x1191D, offset: 0x1191D, size: 0x8, addend: 0x0, symName: __ZNSt3__116allocator_traitsINS_9allocatorIPcEEE9constructB8ue170006IS2_JS2_EvEEvRS3_PT_DpOT0_, symObjAddr: 0x72C0, symBinAddr: 0x10000A6FC, symSize: 0x34 }
  - { offsetInCU: 0x11972, offset: 0x11972, size: 0x8, addend: 0x0, symName: __ZNSt3__114__split_bufferIPcRNS_9allocatorIS1_EEE7__allocB8ue170006Ev, symObjAddr: 0x72F4, symBinAddr: 0x10000A730, symSize: 0x28 }
  - { offsetInCU: 0x11996, offset: 0x11996, size: 0x8, addend: 0x0, symName: __ZNKSt3__113move_iteratorIPPcEdeB8ue170006Ev, symObjAddr: 0x731C, symBinAddr: 0x10000A758, symSize: 0x18 }
  - { offsetInCU: 0x119BA, offset: 0x119BA, size: 0x8, addend: 0x0, symName: __ZNSt3__113move_iteratorIPPcEppB8ue170006Ev, symObjAddr: 0x7334, symBinAddr: 0x10000A770, symSize: 0x20 }
  - { offsetInCU: 0x119DE, offset: 0x119DE, size: 0x8, addend: 0x0, symName: __ZNSt3__114__split_bufferIPcRNS_9allocatorIS1_EEE21_ConstructTransactionD1B8ue170006Ev, symObjAddr: 0x7354, symBinAddr: 0x10000A790, symSize: 0x2C }
  - { offsetInCU: 0x11A07, offset: 0x11A07, size: 0x8, addend: 0x0, symName: __ZNSt3__114__split_bufferIPcRNS_9allocatorIS1_EEE21_ConstructTransactionC2B8ue170006EPPS1_m, symObjAddr: 0x7380, symBinAddr: 0x10000A7BC, symSize: 0x44 }
  - { offsetInCU: 0x11A4A, offset: 0x11A4A, size: 0x8, addend: 0x0, symName: __ZNSt3__19allocatorIPcE9constructB8ue170006IS1_JS1_EEEvPT_DpOT0_, symObjAddr: 0x73C4, symBinAddr: 0x10000A800, symSize: 0x28 }
  - { offsetInCU: 0x11A9E, offset: 0x11A9E, size: 0x8, addend: 0x0, symName: __ZNSt3__117__compressed_pairIPPcRNS_9allocatorIS1_EEE6secondB8ue170006Ev, symObjAddr: 0x73EC, symBinAddr: 0x10000A828, symSize: 0x28 }
  - { offsetInCU: 0x11AC2, offset: 0x11AC2, size: 0x8, addend: 0x0, symName: __ZNSt3__122__compressed_pair_elemIRNS_9allocatorIPcEELi1ELb0EE5__getB8ue170006Ev, symObjAddr: 0x7414, symBinAddr: 0x10000A850, symSize: 0x18 }
  - { offsetInCU: 0x11AE7, offset: 0x11AE7, size: 0x8, addend: 0x0, symName: __ZNSt3__114__split_bufferIPcRNS_9allocatorIS1_EEE21_ConstructTransactionD2B8ue170006Ev, symObjAddr: 0x742C, symBinAddr: 0x10000A868, symSize: 0x20 }
  - { offsetInCU: 0x11B0E, offset: 0x11B0E, size: 0x8, addend: 0x0, symName: __ZNKSt3__113move_iteratorIPPcE4baseB8ue170006Ev, symObjAddr: 0x74C4, symBinAddr: 0x10000A900, symSize: 0x18 }
  - { offsetInCU: 0x11B33, offset: 0x11B33, size: 0x8, addend: 0x0, symName: __ZNSt3__113move_iteratorIPPcEC2B8ue170006ES2_, symObjAddr: 0x74DC, symBinAddr: 0x10000A918, symSize: 0x20 }
  - { offsetInCU: 0x11B68, offset: 0x11B68, size: 0x8, addend: 0x0, symName: __ZNSt3__19allocatorIPcE9constructB8ue170006IS1_JRKS1_EEEvPT_DpOT0_, symObjAddr: 0x74FC, symBinAddr: 0x10000A938, symSize: 0x28 }
  - { offsetInCU: 0x11BBC, offset: 0x11BBC, size: 0x8, addend: 0x0, symName: __ZNSt3__19allocatorIcE8allocateB8ue170006Em, symObjAddr: 0x7524, symBinAddr: 0x10000A960, symSize: 0x58 }
  - { offsetInCU: 0x11BF9, offset: 0x11BF9, size: 0x8, addend: 0x0, symName: __ZNSt3__116allocator_traitsINS_9allocatorIcEEE8max_sizeB8ue170006IS2_vEEmRKS2_, symObjAddr: 0x757C, symBinAddr: 0x10000A9B8, symSize: 0x24 }
  - { offsetInCU: 0x11C25, offset: 0x11C25, size: 0x8, addend: 0x0, symName: __ZNKSt3__19allocatorIcE8max_sizeB8ue170006Ev, symObjAddr: 0x75A0, symBinAddr: 0x10000A9DC, symSize: 0x14 }
  - { offsetInCU: 0x11C53, offset: 0x11C53, size: 0x8, addend: 0x0, symName: __ZNKSt3__123__move_backward_trivialclB8ue170006IPcS2_Li0EEENS_4pairIPT_PT0_EES5_S5_S7_, symObjAddr: 0x7730, symBinAddr: 0x10000AB6C, symSize: 0x48 }
  - { offsetInCU: 0x11CB9, offset: 0x11CB9, size: 0x8, addend: 0x0, symName: __ZNSt3__14pairIPPcS2_EC1B8ue170006IRS2_S5_LPv0EEEOT_OT0_, symObjAddr: 0x7840, symBinAddr: 0x10000AC7C, symSize: 0x3C }
  - { offsetInCU: 0x11D16, offset: 0x11D16, size: 0x8, addend: 0x0, symName: __ZNSt3__14pairIPPcS2_EC2B8ue170006IRS2_S5_LPv0EEEOT_OT0_, symObjAddr: 0x787C, symBinAddr: 0x10000ACB8, symSize: 0x34 }
  - { offsetInCU: 0x11D71, offset: 0x11D71, size: 0x8, addend: 0x0, symName: __ZNSt3__114__split_bufferIPcRNS_9allocatorIS1_EEEC2EmmS4_, symObjAddr: 0x78B0, symBinAddr: 0x10000ACEC, symSize: 0xD4 }
  - { offsetInCU: 0x11DE2, offset: 0x11DE2, size: 0x8, addend: 0x0, symName: __ZNSt3__117__compressed_pairIPPcRNS_9allocatorIS1_EEEC1B8ue170006IDnS5_EEOT_OT0_, symObjAddr: 0x7984, symBinAddr: 0x10000ADC0, symSize: 0x3C }
  - { offsetInCU: 0x11E38, offset: 0x11E38, size: 0x8, addend: 0x0, symName: __ZNSt3__117__compressed_pairIPPcRNS_9allocatorIS1_EEEC2B8ue170006IDnS5_EEOT_OT0_, symObjAddr: 0x7A00, symBinAddr: 0x10000AE3C, symSize: 0x48 }
  - { offsetInCU: 0x11E8F, offset: 0x11E8F, size: 0x8, addend: 0x0, symName: __ZNSt3__122__compressed_pair_elemIRNS_9allocatorIPcEELi1ELb0EEC2B8ue170006IS4_vEEOT_, symObjAddr: 0x7A48, symBinAddr: 0x10000AE84, symSize: 0x20 }
  - { offsetInCU: 0x11ECE, offset: 0x11ECE, size: 0x8, addend: 0x0, symName: __ZNSt3__19allocatorIPcE8allocateB8ue170006Em, symObjAddr: 0x7A68, symBinAddr: 0x10000AEA4, symSize: 0x58 }
  - { offsetInCU: 0x11F0B, offset: 0x11F0B, size: 0x8, addend: 0x0, symName: __ZNSt3__116allocator_traitsINS_9allocatorIPcEEE8max_sizeB8ue170006IS3_vEEmRKS3_, symObjAddr: 0x7AC0, symBinAddr: 0x10000AEFC, symSize: 0x24 }
  - { offsetInCU: 0x11F37, offset: 0x11F37, size: 0x8, addend: 0x0, symName: __ZNKSt3__19allocatorIPcE8max_sizeB8ue170006Ev, symObjAddr: 0x7AE4, symBinAddr: 0x10000AF20, symSize: 0x14 }
  - { offsetInCU: 0x11F5C, offset: 0x11F5C, size: 0x8, addend: 0x0, symName: __ZNSt3__122__allocator_destructorINS_9allocatorIcEEEC2B8ue170006ERS2_m, symObjAddr: 0x7AF8, symBinAddr: 0x10000AF34, symSize: 0x2C }
  - { offsetInCU: 0x11F9F, offset: 0x11F9F, size: 0x8, addend: 0x0, symName: __ZNSt3__110unique_ptrIPcNS_22__allocator_destructorINS_9allocatorIcEEEEEC2B8ue170006ILb1EvEES1_NS_16__dependent_typeINS_27__unique_ptr_deleter_sfinaeIS5_EEXT_EE20__good_rval_ref_typeE, symObjAddr: 0x7B24, symBinAddr: 0x10000AF60, symSize: 0x48 }
  - { offsetInCU: 0x11FEE, offset: 0x11FEE, size: 0x8, addend: 0x0, symName: __ZNSt3__117__compressed_pairIPcNS_22__allocator_destructorINS_9allocatorIcEEEEEC1B8ue170006IRS1_S5_EEOT_OT0_, symObjAddr: 0x7B6C, symBinAddr: 0x10000AFA8, symSize: 0x3C }
  - { offsetInCU: 0x12044, offset: 0x12044, size: 0x8, addend: 0x0, symName: __ZNSt3__117__compressed_pairIPcNS_22__allocator_destructorINS_9allocatorIcEEEEEC2B8ue170006IRS1_S5_EEOT_OT0_, symObjAddr: 0x7BA8, symBinAddr: 0x10000AFE4, symSize: 0x48 }
  - { offsetInCU: 0x1209B, offset: 0x1209B, size: 0x8, addend: 0x0, symName: __ZNSt3__122__compressed_pair_elemIPcLi0ELb0EEC2B8ue170006IRS1_vEEOT_, symObjAddr: 0x7BF0, symBinAddr: 0x10000B02C, symSize: 0x24 }
  - { offsetInCU: 0x120DB, offset: 0x120DB, size: 0x8, addend: 0x0, symName: __ZNSt3__122__compressed_pair_elemINS_22__allocator_destructorINS_9allocatorIcEEEELi1ELb0EEC2B8ue170006IS4_vEEOT_, symObjAddr: 0x7C14, symBinAddr: 0x10000B050, symSize: 0x24 }
  - { offsetInCU: 0x1211A, offset: 0x1211A, size: 0x8, addend: 0x0, symName: __ZNKSt3__117__compressed_pairIPcNS_22__allocator_destructorINS_9allocatorIcEEEEE5firstB8ue170006Ev, symObjAddr: 0x7C38, symBinAddr: 0x10000B074, symSize: 0x24 }
  - { offsetInCU: 0x1213E, offset: 0x1213E, size: 0x8, addend: 0x0, symName: __ZNKSt3__122__compressed_pair_elemIPcLi0ELb0EE5__getB8ue170006Ev, symObjAddr: 0x7C5C, symBinAddr: 0x10000B098, symSize: 0x14 }
  - { offsetInCU: 0x12162, offset: 0x12162, size: 0x8, addend: 0x0, symName: __ZNSt3__117__compressed_pairIPcNS_22__allocator_destructorINS_9allocatorIcEEEEE5firstB8ue170006Ev, symObjAddr: 0x7C70, symBinAddr: 0x10000B0AC, symSize: 0x24 }
  - { offsetInCU: 0x12186, offset: 0x12186, size: 0x8, addend: 0x0, symName: __ZNSt3__122__compressed_pair_elemIPcLi0ELb0EE5__getB8ue170006Ev, symObjAddr: 0x7C94, symBinAddr: 0x10000B0D0, symSize: 0x14 }
  - { offsetInCU: 0x121AA, offset: 0x121AA, size: 0x8, addend: 0x0, symName: __ZNSt3__117__compressed_pairIPPcNS_9allocatorIS1_EEE5firstB8ue170006Ev, symObjAddr: 0x7CA8, symBinAddr: 0x10000B0E4, symSize: 0x24 }
  - { offsetInCU: 0x121CE, offset: 0x121CE, size: 0x8, addend: 0x0, symName: __ZNSt3__122__compressed_pair_elemIPPcLi0ELb0EE5__getB8ue170006Ev, symObjAddr: 0x7CCC, symBinAddr: 0x10000B108, symSize: 0x14 }
  - { offsetInCU: 0x121F2, offset: 0x121F2, size: 0x8, addend: 0x0, symName: __ZNSt3__117__compressed_pairIPPcRNS_9allocatorIS1_EEE5firstB8ue170006Ev, symObjAddr: 0x7CE0, symBinAddr: 0x10000B11C, symSize: 0x24 }
  - { offsetInCU: 0x12216, offset: 0x12216, size: 0x8, addend: 0x0, symName: __ZNSt3__110unique_ptrIPcNS_22__allocator_destructorINS_9allocatorIcEEEEED2B8ue170006Ev, symObjAddr: 0x7D04, symBinAddr: 0x10000B140, symSize: 0x30 }
  - { offsetInCU: 0x1223E, offset: 0x1223E, size: 0x8, addend: 0x0, symName: __ZNSt3__110unique_ptrIPcNS_22__allocator_destructorINS_9allocatorIcEEEEE5resetB8ue170006ES1_, symObjAddr: 0x7D34, symBinAddr: 0x10000B170, symSize: 0x78 }
  - { offsetInCU: 0x12280, offset: 0x12280, size: 0x8, addend: 0x0, symName: __ZNSt3__117__compressed_pairIPcNS_22__allocator_destructorINS_9allocatorIcEEEEE6secondB8ue170006Ev, symObjAddr: 0x7DAC, symBinAddr: 0x10000B1E8, symSize: 0x28 }
  - { offsetInCU: 0x122A4, offset: 0x122A4, size: 0x8, addend: 0x0, symName: __ZNSt3__122__allocator_destructorINS_9allocatorIcEEEclB8ue170006EPc, symObjAddr: 0x7DD4, symBinAddr: 0x10000B210, symSize: 0x34 }
  - { offsetInCU: 0x122D6, offset: 0x122D6, size: 0x8, addend: 0x0, symName: __ZNSt3__122__compressed_pair_elemINS_22__allocator_destructorINS_9allocatorIcEEEELi1ELb0EE5__getB8ue170006Ev, symObjAddr: 0x7E08, symBinAddr: 0x10000B244, symSize: 0x14 }
  - { offsetInCU: 0x122FA, offset: 0x122FA, size: 0x8, addend: 0x0, symName: __ZNSt3__114__split_bufferIPcRNS_9allocatorIS1_EEED2Ev, symObjAddr: 0x7E1C, symBinAddr: 0x10000B258, symSize: 0x8C }
  - { offsetInCU: 0x12324, offset: 0x12324, size: 0x8, addend: 0x0, symName: __ZNSt3__114__split_bufferIPcRNS_9allocatorIS1_EEE5clearB8ue170006Ev, symObjAddr: 0x7EA8, symBinAddr: 0x10000B2E4, symSize: 0x28 }
  - { offsetInCU: 0x12348, offset: 0x12348, size: 0x8, addend: 0x0, symName: __ZNKSt3__114__split_bufferIPcRNS_9allocatorIS1_EEE8capacityB8ue170006Ev, symObjAddr: 0x7ED0, symBinAddr: 0x10000B30C, symSize: 0x40 }
  - { offsetInCU: 0x1236C, offset: 0x1236C, size: 0x8, addend: 0x0, symName: __ZNSt3__114__split_bufferIPcRNS_9allocatorIS1_EEE17__destruct_at_endB8ue170006EPS1_, symObjAddr: 0x7F10, symBinAddr: 0x10000B34C, symSize: 0x2C }
  - { offsetInCU: 0x1239E, offset: 0x1239E, size: 0x8, addend: 0x0, symName: __ZNSt3__114__split_bufferIPcRNS_9allocatorIS1_EEE17__destruct_at_endB8ue170006EPS1_NS_17integral_constantIbLb0EEE, symObjAddr: 0x7F3C, symBinAddr: 0x10000B378, symSize: 0x80 }
  - { offsetInCU: 0x123DC, offset: 0x123DC, size: 0x8, addend: 0x0, symName: __ZNKSt3__114__split_bufferIPcRNS_9allocatorIS1_EEE9__end_capB8ue170006Ev, symObjAddr: 0x7FBC, symBinAddr: 0x10000B3F8, symSize: 0x28 }
  - { offsetInCU: 0x12400, offset: 0x12400, size: 0x8, addend: 0x0, symName: __ZNKSt3__117__compressed_pairIPPcRNS_9allocatorIS1_EEE5firstB8ue170006Ev, symObjAddr: 0x7FE4, symBinAddr: 0x10000B420, symSize: 0x24 }
  - { offsetInCU: 0x12424, offset: 0x12424, size: 0x8, addend: 0x0, symName: __ZNSt3__19allocatorIcE9constructB8ue170006IcJRKcEEEvPT_DpOT0_, symObjAddr: 0x8008, symBinAddr: 0x10000B444, symSize: 0x28 }
  - { offsetInCU: 0x12478, offset: 0x12478, size: 0x8, addend: 0x0, symName: __ZNSt3__112basic_stringIcNS_11char_traitsIcEENS_9allocatorIcEEEC2B8ue170006ILi0EEEPKc, symObjAddr: 0x8030, symBinAddr: 0x10000B46C, symSize: 0x58 }
  - { offsetInCU: 0x124B5, offset: 0x124B5, size: 0x8, addend: 0x0, symName: __ZNSt3__117__compressed_pairINS_12basic_stringIcNS_11char_traitsIcEENS_9allocatorIcEEE5__repES5_EC1B8ue170006INS_18__default_init_tagESA_EEOT_OT0_, symObjAddr: 0x8088, symBinAddr: 0x10000B4C4, symSize: 0x3C }
  - { offsetInCU: 0x1250C, offset: 0x1250C, size: 0x8, addend: 0x0, symName: __ZNSt3__111char_traitsIcE6lengthB8ue170006EPKc, symObjAddr: 0x80C4, symBinAddr: 0x10000B500, symSize: 0x34 }
  - { offsetInCU: 0x1252D, offset: 0x1252D, size: 0x8, addend: 0x0, symName: __ZNSt3__117__compressed_pairINS_12basic_stringIcNS_11char_traitsIcEENS_9allocatorIcEEE5__repES5_EC2B8ue170006INS_18__default_init_tagESA_EEOT_OT0_, symObjAddr: 0x80F8, symBinAddr: 0x10000B534, symSize: 0x3C }
  - { offsetInCU: 0x12584, offset: 0x12584, size: 0x8, addend: 0x0, symName: __ZNSt3__122__compressed_pair_elemINS_12basic_stringIcNS_11char_traitsIcEENS_9allocatorIcEEE5__repELi0ELb0EEC2B8ue170006ENS_18__default_init_tagE, symObjAddr: 0x8134, symBinAddr: 0x10000B570, symSize: 0x14 }
...
